(lp1
(dp2
S'countryIsoCode'
p3
S'cn'
p4
sS'anon'
p5
S'High +KA'
p6
sS'connection_time'
p7
S'58'
p8
sS'type'
p9
S'socks4/5'
p10
sS'country'
p11
S'China'
p12
sS'ip_address'
p13
S'121.42.44.160'
p14
sS'port'
p15
S'1080'
p16
sS'speed'
p17
S'58'
p18
sS'last_update'
p19
S'2secs'
p20
sa(dp21
g3
S'eu'
p22
sg5
S'High +KA'
p23
sg7
S'45'
p24
sg9
S'HTTPS'
p25
sg11
S'Europe'
p26
sg13
S'185.48.189.110'
p27
sg15
S'8080'
p28
sg17
S'45'
p29
sg19
S'2secs'
p30
sa(dp31
g3
S'mx'
p32
sg5
S'High +KA'
p33
sg7
S'45'
p34
sg9
S'HTTPS'
p35
sg11
S'Mexico'
p36
sg13
S'187.191.29.210'
p37
sg15
S'8000'
p38
sg17
S'45'
p39
sg19
S'2secs'
p40
sa(dp41
g3
S'es'
p42
sg5
S'High +KA'
p43
sg7
S'60'
p44
sg9
S'HTTP'
p45
sg11
S'Spain'
p46
sg13
S'195.140.157.138'
p47
sg15
S'443'
p48
sg17
S'60'
p49
sg19
S'2secs'
p50
sa(dp51
g3
S'hk'
p52
sg5
S'High +KA'
p53
sg7
S'43'
p54
sg9
S'HTTP'
p55
sg11
S'Hong Kong'
p56
sg13
S'218.213.166.218'
p57
sg15
S'81'
p58
sg17
S'43'
p59
sg19
S'2secs'
p60
sa(dp61
g3
S'fr'
p62
sg5
S'High +KA'
p63
sg7
S'49'
p64
sg9
S'HTTPS'
p65
sg11
S'France'
p66
sg13
S'195.154.231.43'
p67
sg15
S'3128'
p68
sg17
S'49'
p69
sg19
S'2secs'
p70
sa(dp71
g3
S'ar'
p72
sg5
S'High +KA'
p73
sg7
S'80'
p74
sg9
S'HTTPS'
p75
sg11
S'Argentina'
p76
sg13
S'190.98.162.22'
p77
sg15
S'8080'
p78
sg17
S'80'
p79
sg19
S'1min'
p80
sa(dp81
g3
S'cn'
p82
sg5
S'Low'
p83
sg7
S'92'
p84
sg9
S'HTTP'
p85
sg11
S'China'
p86
sg13
S'112.25.185.171'
p87
sg15
S'8000'
p88
sg17
S'92'
p89
sg19
S'1min'
p90
sa(dp91
g3
S'us'
p92
sg5
S'High +KA'
p93
sg7
S'100'
p94
sg9
S'socks4/5'
p95
sg11
S'USA'
p96
sg13
S'54.201.155.108'
p97
sg15
S'1080'
p98
sg17
S'100'
p99
sg19
S'1min'
p100
sa(dp101
g3
S'cn'
p102
sg5
S'High +KA'
p103
sg7
S'92'
p104
sg9
S'socks4/5'
p105
sg11
S'China'
p106
sg13
S'120.27.101.186'
p107
sg15
S'1080'
p108
sg17
S'92'
p109
sg19
S'1min'
p110
sa(dp111
g3
S'us'
p112
sg5
S'High +KA'
p113
sg7
S'46'
p114
sg9
S'HTTPS'
p115
sg11
S'USA'
p116
sg13
S'165.138.66.247'
p117
sg15
S'8080'
p118
sg17
S'46'
p119
sg19
S'1min'
p120
sa(dp121
g3
S'cn'
p122
sg5
S'High +KA'
p123
sg7
S'51'
p124
sg9
S'HTTP'
p125
sg11
S'China'
p126
sg13
S'218.97.194.220'
p127
sg15
S'81'
p128
sg17
S'51'
p129
sg19
S'1min'
p130
sa(dp131
g3
S'cn'
p132
sg5
S'High +KA'
p133
sg7
S'42'
p134
sg9
S'HTTP'
p135
sg11
S'China'
p136
sg13
S'117.135.250.133'
p137
sg15
S'8080'
p138
sg17
S'42'
p139
sg19
S'1min'
p140
sa(dp141
g3
S'ca'
p142
sg5
S'High'
p143
sg7
S'93'
p144
sg9
S'HTTP'
p145
sg11
S'Canada'
p146
sg13
S'198.169.246.30'
p147
sg15
S'80'
p148
sg17
S'93'
p149
sg19
S'2mins'
p150
sa(dp151
g3
S'no'
p152
sg5
S'High'
p153
sg7
S'47'
p154
sg9
S'HTTP'
p155
sg11
S'Norway'
p156
sg13
S'80.203.214.156'
p157
sg15
S'8080'
p158
sg17
S'47'
p159
sg19
S'4mins'
p160
sa(dp161
g3
S'us'
p162
sg5
S'Low'
p163
sg7
S'42'
p164
sg9
S'HTTP'
p165
sg11
S'USA'
p166
sg13
S'24.173.40.24'
p167
sg15
S'8080'
p168
sg17
S'42'
p169
sg19
S'4mins'
p170
sa(dp171
g3
S'th'
p172
sg5
S'Low'
p173
sg7
S'43'
p174
sg9
S'HTTP'
p175
sg11
S'Thailand'
p176
sg13
S'202.29.97.2'
p177
sg15
S'3128'
p178
sg17
S'43'
p179
sg19
S'5mins'
p180
sa(dp181
g3
S'hk'
p182
sg5
S'High +KA'
p183
sg7
S'92'
p184
sg9
S'socks4/5'
p185
sg11
S'Hong Kong'
p186
sg13
S'121.40.34.139'
p187
sg15
S'3128'
p188
sg17
S'92'
p189
sg19
S'5mins'
p190
sa(dp191
g3
S'hk'
p192
sg5
S'High +KA'
p193
sg7
S'91'
p194
sg9
S'HTTP'
p195
sg11
S'Hong Kong'
p196
sg13
S'113.255.49.49'
p197
sg15
S'80'
p198
sg17
S'91'
p199
sg19
S'10mins'
p200
sa(dp201
g3
S've'
p202
sg5
S'High +KA'
p203
sg7
S'29'
p204
sg9
S'HTTPS'
p205
sg11
S'Venezuela'
p206
sg13
S'190.198.25.105'
p207
sg15
S'8080'
p208
sg17
S'29'
p209
sg19
S'22mins'
p210
sa(dp211
g3
S'ua'
p212
sg5
S'High +KA'
p213
sg7
S'96'
p214
sg9
S'HTTPS'
p215
sg11
S'Ukraine'
p216
sg13
S'178.151.69.119'
p217
sg15
S'3128'
p218
sg17
S'96'
p219
sg19
S'52mins'
p220
sa(dp221
g3
S'ec'
p222
sg5
S'High +KA'
p223
sg7
S'40'
p224
sg9
S'HTTPS'
p225
sg11
S'Ecuador'
p226
sg13
S'190.63.157.226'
p227
sg15
S'8081'
p228
sg17
S'40'
p229
sg19
S'1h 31mins'
p230
sa(dp231
g3
S'cn'
p232
sg5
S'High +KA'
p233
sg7
S'84'
p234
sg9
S'HTTP'
p235
sg11
S'China'
p236
sg13
S'120.52.73.30'
p237
sg15
S'80'
p238
sg17
S'84'
p239
sg19
S'2h 13mins'
p240
sa(dp241
g3
S'in'
p242
sg5
S'High'
p243
sg7
S'92'
p244
sg9
S'HTTP'
p245
sg11
S'India'
p246
sg13
S'14.142.4.33'
p247
sg15
S'80'
p248
sg17
S'92'
p249
sg19
S'2h 13mins'
p250
sa(dp251
g3
S'cn'
p252
sg5
S'High +KA'
p253
sg7
S'57'
p254
sg9
S'HTTP'
p255
sg11
S'China'
p256
sg13
S'202.195.192.197'
p257
sg15
S'3128'
p258
sg17
S'57'
p259
sg19
S'5h 17mins'
p260
sa(dp261
g3
S'id'
p262
sg5
S'High +KA'
p263
sg7
S'69'
p264
sg9
S'HTTPS'
p265
sg11
S'Indonesia'
p266
sg13
S'121.101.185.138'
p267
sg15
S'8080'
p268
sg17
S'69'
p269
sg19
S'5h 21mins'
p270
sa(dp271
g3
S'cn'
p272
sg5
S'High +KA'
p273
sg7
S'87'
p274
sg9
S'HTTP'
p275
sg11
S'China'
p276
sg13
S'218.97.194.219'
p277
sg15
S'81'
p278
sg17
S'87'
p279
sg19
S'5h 25mins'
p280
sa(dp281
g3
S'us'
p282
sg5
S'High +KA'
p283
sg7
S'100'
p284
sg9
S'socks4/5'
p285
sg11
S'USA'
p286
sg13
S'149.202.68.167'
p287
sg15
S'37178'
p288
sg17
S'100'
p289
sg19
S'6h 31mins'
p290
sa(dp291
g3
S'cn'
p292
sg5
S'High +KA'
p293
sg7
S'87'
p294
sg9
S'HTTP'
p295
sg11
S'China'
p296
sg13
S'122.96.59.104'
p297
sg15
S'81'
p298
sg17
S'87'
p299
sg19
S'7h 27mins'
p300
sa(dp301
g3
S'cl'
p302
sg5
S'Low'
p303
sg7
S'55'
p304
sg9
S'HTTP'
p305
sg11
S'Chile'
p306
sg13
S'190.208.45.221'
p307
sg15
S'3128'
p308
sg17
S'55'
p309
sg19
S'7h 28mins'
p310
sa(dp311
g3
S'kh'
p312
sg5
S'Low'
p313
sg7
S'76'
p314
sg9
S'HTTP'
p315
sg11
S'Cambodia'
p316
sg13
S'119.15.92.242'
p317
sg15
S'8080'
p318
sg17
S'76'
p319
sg19
S'10h 36mins'
p320
sa(dp321
g3
S'us'
p322
sg5
S'High +KA'
p323
sg7
S'100'
p324
sg9
S'socks4/5'
p325
sg11
S'USA'
p326
sg13
S'166.62.97.241'
p327
sg15
S'18628'
p328
sg17
S'100'
p329
sg19
S'11h 53mins'
p330
sa(dp331
g3
S'cn'
p332
sg5
S'High +KA'
p333
sg7
S'92'
p334
sg9
S'HTTP'
p335
sg11
S'China'
p336
sg13
S'117.136.234.11'
p337
sg15
S'80'
p338
sg17
S'92'
p339
sg19
S'12h 27mins'
p340
sa(dp341
g3
S've'
p342
sg5
S'High +KA'
p343
sg7
S'18'
p344
sg9
S'HTTPS'
p345
sg11
S'Venezuela'
p346
sg13
S'186.88.185.1'
p347
sg15
S'8080'
p348
sg17
S'18'
p349
sg19
S'12h 54mins'
p350
sa(dp351
g3
S'cn'
p352
sg5
S'High +KA'
p353
sg7
S'38'
p354
sg9
S'HTTPS'
p355
sg11
S'China'
p356
sg13
S'163.177.79.4'
p357
sg15
S'8104'
p358
sg17
S'38'
p359
sg19
S'13h 40mins'
p360
sa(dp361
g3
S'cn'
p362
sg5
S'High +KA'
p363
sg7
S'38'
p364
sg9
S'HTTPS'
p365
sg11
S'China'
p366
sg13
S'163.177.79.4'
p367
sg15
S'8107'
p368
sg17
S'38'
p369
sg19
S'15h 21mins'
p370
sa(dp371
g3
S'us'
p372
sg5
S'High +KA'
p373
sg7
S'68'
p374
sg9
S'socks4/5'
p375
sg11
S'USA'
p376
sg13
S'66.223.161.52'
p377
sg15
S'10200'
p378
sg17
S'68'
p379
sg19
S'15h 25mins'
p380
sa(dp381
g3
S'cn'
p382
sg5
S'Low'
p383
sg7
S'37'
p384
sg9
S'HTTP'
p385
sg11
S'China'
p386
sg13
S'58.253.238.242'
p387
sg15
S'80'
p388
sg17
S'37'
p389
sg19
S'16h 40mins'
p390
sa(dp391
g3
S'eu'
p392
sg5
S'High +KA'
p393
sg7
S'49'
p394
sg9
S'HTTPS'
p395
sg11
S'Europe'
p396
sg13
S'185.28.193.95'
p397
sg15
S'8080'
p398
sg17
S'49'
p399
sg19
S'17h 1min'
p400
sa(dp401
g3
S'co'
p402
sg5
S'High +KA'
p403
sg7
S'59'
p404
sg9
S'HTTPS'
p405
sg11
S'Colombia'
p406
sg13
S'190.121.158.122'
p407
sg15
S'8080'
p408
sg17
S'59'
p409
sg19
S'17h 38mins'
p410
sa(dp411
g3
S'co'
p412
sg5
S'High +KA'
p413
sg7
S'59'
p414
sg9
S'HTTPS'
p415
sg11
S'Colombia'
p416
sg13
S'190.121.158.122'
p417
sg15
S'8080'
p418
sg17
S'59'
p419
sg19
S'17h 38mins'
p420
sa(dp421
g3
S'cn'
p422
sg5
S'Low'
p423
sg7
S'38'
p424
sg9
S'HTTP'
p425
sg11
S'China'
p426
sg13
S'58.253.238.243'
p427
sg15
S'80'
p428
sg17
S'38'
p429
sg19
S'18h 31mins'
p430
sa(dp431
g3
S'cn'
p432
sg5
S'High +KA'
p433
sg7
S'82'
p434
sg9
S'HTTP'
p435
sg11
S'China'
p436
sg13
S'124.160.194.72'
p437
sg15
S'80'
p438
sg17
S'82'
p439
sg19
S'18h 35mins'
p440
sa(dp441
g3
S'hk'
p442
sg5
S'High +KA'
p443
sg7
S'90'
p444
sg9
S'HTTP'
p445
sg11
S'Hong Kong'
p446
sg13
S'218.191.30.163'
p447
sg15
S'80'
p448
sg17
S'90'
p449
sg19
S'18h 49mins'
p450
sa(dp451
g3
S'kz'
p452
sg5
S'High +KA'
p453
sg7
S'90'
p454
sg9
S'HTTPS'
p455
sg11
S'Kazakhstan'
p456
sg13
S'213.157.52.75'
p457
sg15
S'3130'
p458
sg17
S'90'
p459
sg19
S'19h 1min'
p460
sa(dp461
g3
S'us'
p462
sg5
S'High +KA'
p463
sg7
S'45'
p464
sg9
S'HTTPS'
p465
sg11
S'USA'
p466
sg13
S'136.0.16.217'
p467
sg15
S'7808'
p468
sg17
S'45'
p469
sg19
S'19h 21mins'
p470
sa(dp471
g3
S'hk'
p472
sg5
S'High +KA'
p473
sg7
S'89'
p474
sg9
S'HTTP'
p475
sg11
S'Hong Kong'
p476
sg13
S'223.19.196.232'
p477
sg15
S'80'
p478
sg17
S'89'
p479
sg19
S'19h 48mins'
p480
sa(dp481
g3
S'de'
p482
sg5
S'High +KA'
p483
sg7
S'100'
p484
sg9
S'socks4/5'
p485
sg11
S'Germany'
p486
sg13
S'94.23.166.246'
p487
sg15
S'60088'
p488
sg17
S'100'
p489
sg19
S'20h 16mins'
p490
sa(dp491
g3
S'cn'
p492
sg5
S'High +KA'
p493
sg7
S'84'
p494
sg9
S'socks4/5'
p495
sg11
S'China'
p496
sg13
S'123.56.94.68'
p497
sg15
S'1080'
p498
sg17
S'84'
p499
sg19
S'20h 23mins'
p500
sa(dp501
g3
S'cn'
p502
sg5
S'High +KA'
p503
sg7
S'39'
p504
sg9
S'HTTPS'
p505
sg11
S'China'
p506
sg13
S'60.29.248.142'
p507
sg15
S'8080'
p508
sg17
S'39'
p509
sg19
S'20h 59mins'
p510
sa(dp511
g3
S'cn'
p512
sg5
S'High +KA'
p513
sg7
S'58'
p514
sg9
S'socks4/5'
p515
sg11
S'China'
p516
sg13
S'121.42.44.160'
p517
sg15
S'1080'
p518
sg17
S'58'
p519
sg19
S'3secs'
p520
sa(dp521
g3
S'eu'
p522
sg5
S'High +KA'
p523
sg7
S'45'
p524
sg9
S'HTTPS'
p525
sg11
S'Europe'
p526
sg13
S'185.48.189.110'
p527
sg15
S'8080'
p528
sg17
S'45'
p529
sg19
S'3secs'
p530
sa(dp531
g3
S'mx'
p532
sg5
S'High +KA'
p533
sg7
S'45'
p534
sg9
S'HTTPS'
p535
sg11
S'Mexico'
p536
sg13
S'187.191.29.210'
p537
sg15
S'8000'
p538
sg17
S'45'
p539
sg19
S'3secs'
p540
sa(dp541
g3
S'es'
p542
sg5
S'High +KA'
p543
sg7
S'60'
p544
sg9
S'HTTP'
p545
sg11
S'Spain'
p546
sg13
S'195.140.157.138'
p547
sg15
S'443'
p548
sg17
S'60'
p549
sg19
S'3secs'
p550
sa(dp551
g3
S'hk'
p552
sg5
S'High +KA'
p553
sg7
S'43'
p554
sg9
S'HTTP'
p555
sg11
S'Hong Kong'
p556
sg13
S'218.213.166.218'
p557
sg15
S'81'
p558
sg17
S'43'
p559
sg19
S'3secs'
p560
sa(dp561
g3
S'fr'
p562
sg5
S'High +KA'
p563
sg7
S'49'
p564
sg9
S'HTTPS'
p565
sg11
S'France'
p566
sg13
S'195.154.231.43'
p567
sg15
S'3128'
p568
sg17
S'49'
p569
sg19
S'3secs'
p570
sa(dp571
g3
S'ar'
p572
sg5
S'High +KA'
p573
sg7
S'80'
p574
sg9
S'HTTPS'
p575
sg11
S'Argentina'
p576
sg13
S'190.98.162.22'
p577
sg15
S'8080'
p578
sg17
S'80'
p579
sg19
S'1min'
p580
sa(dp581
g3
S'cn'
p582
sg5
S'Low'
p583
sg7
S'92'
p584
sg9
S'HTTP'
p585
sg11
S'China'
p586
sg13
S'112.25.185.171'
p587
sg15
S'8000'
p588
sg17
S'92'
p589
sg19
S'1min'
p590
sa(dp591
g3
S'us'
p592
sg5
S'High +KA'
p593
sg7
S'100'
p594
sg9
S'socks4/5'
p595
sg11
S'USA'
p596
sg13
S'54.201.155.108'
p597
sg15
S'1080'
p598
sg17
S'100'
p599
sg19
S'1min'
p600
sa(dp601
g3
S'cn'
p602
sg5
S'High +KA'
p603
sg7
S'92'
p604
sg9
S'socks4/5'
p605
sg11
S'China'
p606
sg13
S'120.27.101.186'
p607
sg15
S'1080'
p608
sg17
S'92'
p609
sg19
S'1min'
p610
sa(dp611
g3
S'us'
p612
sg5
S'High +KA'
p613
sg7
S'46'
p614
sg9
S'HTTPS'
p615
sg11
S'USA'
p616
sg13
S'165.138.66.247'
p617
sg15
S'8080'
p618
sg17
S'46'
p619
sg19
S'1min'
p620
sa(dp621
g3
S'cn'
p622
sg5
S'High +KA'
p623
sg7
S'51'
p624
sg9
S'HTTP'
p625
sg11
S'China'
p626
sg13
S'218.97.194.220'
p627
sg15
S'81'
p628
sg17
S'51'
p629
sg19
S'1min'
p630
sa(dp631
g3
S'cn'
p632
sg5
S'High +KA'
p633
sg7
S'42'
p634
sg9
S'HTTP'
p635
sg11
S'China'
p636
sg13
S'117.135.250.133'
p637
sg15
S'8080'
p638
sg17
S'42'
p639
sg19
S'1min'
p640
sa(dp641
g3
S'ca'
p642
sg5
S'High'
p643
sg7
S'93'
p644
sg9
S'HTTP'
p645
sg11
S'Canada'
p646
sg13
S'198.169.246.30'
p647
sg15
S'80'
p648
sg17
S'93'
p649
sg19
S'2mins'
p650
sa(dp651
g3
S'no'
p652
sg5
S'High'
p653
sg7
S'47'
p654
sg9
S'HTTP'
p655
sg11
S'Norway'
p656
sg13
S'80.203.214.156'
p657
sg15
S'8080'
p658
sg17
S'47'
p659
sg19
S'4mins'
p660
sa(dp661
g3
S'us'
p662
sg5
S'Low'
p663
sg7
S'42'
p664
sg9
S'HTTP'
p665
sg11
S'USA'
p666
sg13
S'24.173.40.24'
p667
sg15
S'8080'
p668
sg17
S'42'
p669
sg19
S'4mins'
p670
sa(dp671
g3
S'th'
p672
sg5
S'Low'
p673
sg7
S'43'
p674
sg9
S'HTTP'
p675
sg11
S'Thailand'
p676
sg13
S'202.29.97.2'
p677
sg15
S'3128'
p678
sg17
S'43'
p679
sg19
S'5mins'
p680
sa(dp681
g3
S'hk'
p682
sg5
S'High +KA'
p683
sg7
S'92'
p684
sg9
S'socks4/5'
p685
sg11
S'Hong Kong'
p686
sg13
S'121.40.34.139'
p687
sg15
S'3128'
p688
sg17
S'92'
p689
sg19
S'5mins'
p690
sa(dp691
g3
S'hk'
p692
sg5
S'High +KA'
p693
sg7
S'91'
p694
sg9
S'HTTP'
p695
sg11
S'Hong Kong'
p696
sg13
S'113.255.49.49'
p697
sg15
S'80'
p698
sg17
S'91'
p699
sg19
S'10mins'
p700
sa(dp701
g3
S've'
p702
sg5
S'High +KA'
p703
sg7
S'29'
p704
sg9
S'HTTPS'
p705
sg11
S'Venezuela'
p706
sg13
S'190.198.25.105'
p707
sg15
S'8080'
p708
sg17
S'29'
p709
sg19
S'22mins'
p710
sa(dp711
g3
S'ua'
p712
sg5
S'High +KA'
p713
sg7
S'96'
p714
sg9
S'HTTPS'
p715
sg11
S'Ukraine'
p716
sg13
S'178.151.69.119'
p717
sg15
S'3128'
p718
sg17
S'96'
p719
sg19
S'52mins'
p720
sa(dp721
g3
S'ec'
p722
sg5
S'High +KA'
p723
sg7
S'40'
p724
sg9
S'HTTPS'
p725
sg11
S'Ecuador'
p726
sg13
S'190.63.157.226'
p727
sg15
S'8081'
p728
sg17
S'40'
p729
sg19
S'1h 31mins'
p730
sa(dp731
g3
S'cn'
p732
sg5
S'High +KA'
p733
sg7
S'84'
p734
sg9
S'HTTP'
p735
sg11
S'China'
p736
sg13
S'120.52.73.30'
p737
sg15
S'80'
p738
sg17
S'84'
p739
sg19
S'2h 13mins'
p740
sa(dp741
g3
S'in'
p742
sg5
S'High'
p743
sg7
S'92'
p744
sg9
S'HTTP'
p745
sg11
S'India'
p746
sg13
S'14.142.4.33'
p747
sg15
S'80'
p748
sg17
S'92'
p749
sg19
S'2h 13mins'
p750
sa(dp751
g3
S'cn'
p752
sg5
S'High +KA'
p753
sg7
S'57'
p754
sg9
S'HTTP'
p755
sg11
S'China'
p756
sg13
S'202.195.192.197'
p757
sg15
S'3128'
p758
sg17
S'57'
p759
sg19
S'5h 17mins'
p760
sa(dp761
g3
S'id'
p762
sg5
S'High +KA'
p763
sg7
S'69'
p764
sg9
S'HTTPS'
p765
sg11
S'Indonesia'
p766
sg13
S'121.101.185.138'
p767
sg15
S'8080'
p768
sg17
S'69'
p769
sg19
S'5h 21mins'
p770
sa(dp771
g3
S'cn'
p772
sg5
S'High +KA'
p773
sg7
S'87'
p774
sg9
S'HTTP'
p775
sg11
S'China'
p776
sg13
S'218.97.194.219'
p777
sg15
S'81'
p778
sg17
S'87'
p779
sg19
S'5h 25mins'
p780
sa(dp781
g3
S'us'
p782
sg5
S'High +KA'
p783
sg7
S'100'
p784
sg9
S'socks4/5'
p785
sg11
S'USA'
p786
sg13
S'149.202.68.167'
p787
sg15
S'37178'
p788
sg17
S'100'
p789
sg19
S'6h 31mins'
p790
sa(dp791
g3
S'cn'
p792
sg5
S'High +KA'
p793
sg7
S'87'
p794
sg9
S'HTTP'
p795
sg11
S'China'
p796
sg13
S'122.96.59.104'
p797
sg15
S'81'
p798
sg17
S'87'
p799
sg19
S'7h 27mins'
p800
sa(dp801
g3
S'cl'
p802
sg5
S'Low'
p803
sg7
S'55'
p804
sg9
S'HTTP'
p805
sg11
S'Chile'
p806
sg13
S'190.208.45.221'
p807
sg15
S'3128'
p808
sg17
S'55'
p809
sg19
S'7h 28mins'
p810
sa(dp811
g3
S'kh'
p812
sg5
S'Low'
p813
sg7
S'76'
p814
sg9
S'HTTP'
p815
sg11
S'Cambodia'
p816
sg13
S'119.15.92.242'
p817
sg15
S'8080'
p818
sg17
S'76'
p819
sg19
S'10h 36mins'
p820
sa(dp821
g3
S'us'
p822
sg5
S'High +KA'
p823
sg7
S'100'
p824
sg9
S'socks4/5'
p825
sg11
S'USA'
p826
sg13
S'166.62.97.241'
p827
sg15
S'18628'
p828
sg17
S'100'
p829
sg19
S'11h 53mins'
p830
sa(dp831
g3
S'cn'
p832
sg5
S'High +KA'
p833
sg7
S'92'
p834
sg9
S'HTTP'
p835
sg11
S'China'
p836
sg13
S'117.136.234.11'
p837
sg15
S'80'
p838
sg17
S'92'
p839
sg19
S'12h 27mins'
p840
sa(dp841
g3
S've'
p842
sg5
S'High +KA'
p843
sg7
S'18'
p844
sg9
S'HTTPS'
p845
sg11
S'Venezuela'
p846
sg13
S'186.88.185.1'
p847
sg15
S'8080'
p848
sg17
S'18'
p849
sg19
S'12h 54mins'
p850
sa(dp851
g3
S'cn'
p852
sg5
S'High +KA'
p853
sg7
S'38'
p854
sg9
S'HTTPS'
p855
sg11
S'China'
p856
sg13
S'163.177.79.4'
p857
sg15
S'8104'
p858
sg17
S'38'
p859
sg19
S'13h 40mins'
p860
sa(dp861
g3
S'cn'
p862
sg5
S'High +KA'
p863
sg7
S'38'
p864
sg9
S'HTTPS'
p865
sg11
S'China'
p866
sg13
S'163.177.79.4'
p867
sg15
S'8107'
p868
sg17
S'38'
p869
sg19
S'15h 21mins'
p870
sa(dp871
g3
S'us'
p872
sg5
S'High +KA'
p873
sg7
S'68'
p874
sg9
S'socks4/5'
p875
sg11
S'USA'
p876
sg13
S'66.223.161.52'
p877
sg15
S'10200'
p878
sg17
S'68'
p879
sg19
S'15h 25mins'
p880
sa(dp881
g3
S'cn'
p882
sg5
S'Low'
p883
sg7
S'37'
p884
sg9
S'HTTP'
p885
sg11
S'China'
p886
sg13
S'58.253.238.242'
p887
sg15
S'80'
p888
sg17
S'37'
p889
sg19
S'16h 41mins'
p890
sa(dp891
g3
S'eu'
p892
sg5
S'High +KA'
p893
sg7
S'49'
p894
sg9
S'HTTPS'
p895
sg11
S'Europe'
p896
sg13
S'185.28.193.95'
p897
sg15
S'8080'
p898
sg17
S'49'
p899
sg19
S'17h 1min'
p900
sa(dp901
g3
S'co'
p902
sg5
S'High +KA'
p903
sg7
S'59'
p904
sg9
S'HTTPS'
p905
sg11
S'Colombia'
p906
sg13
S'190.121.158.122'
p907
sg15
S'8080'
p908
sg17
S'59'
p909
sg19
S'17h 38mins'
p910
sa(dp911
g3
S'co'
p912
sg5
S'High +KA'
p913
sg7
S'59'
p914
sg9
S'HTTPS'
p915
sg11
S'Colombia'
p916
sg13
S'190.121.158.122'
p917
sg15
S'8080'
p918
sg17
S'59'
p919
sg19
S'17h 38mins'
p920
sa(dp921
g3
S'cn'
p922
sg5
S'Low'
p923
sg7
S'38'
p924
sg9
S'HTTP'
p925
sg11
S'China'
p926
sg13
S'58.253.238.243'
p927
sg15
S'80'
p928
sg17
S'38'
p929
sg19
S'18h 31mins'
p930
sa(dp931
g3
S'cn'
p932
sg5
S'High +KA'
p933
sg7
S'82'
p934
sg9
S'HTTP'
p935
sg11
S'China'
p936
sg13
S'124.160.194.72'
p937
sg15
S'80'
p938
sg17
S'82'
p939
sg19
S'18h 35mins'
p940
sa(dp941
g3
S'hk'
p942
sg5
S'High +KA'
p943
sg7
S'90'
p944
sg9
S'HTTP'
p945
sg11
S'Hong Kong'
p946
sg13
S'218.191.30.163'
p947
sg15
S'80'
p948
sg17
S'90'
p949
sg19
S'18h 49mins'
p950
sa(dp951
g3
S'kz'
p952
sg5
S'High +KA'
p953
sg7
S'90'
p954
sg9
S'HTTPS'
p955
sg11
S'Kazakhstan'
p956
sg13
S'213.157.52.75'
p957
sg15
S'3130'
p958
sg17
S'90'
p959
sg19
S'19h 1min'
p960
sa(dp961
g3
S'us'
p962
sg5
S'High +KA'
p963
sg7
S'45'
p964
sg9
S'HTTPS'
p965
sg11
S'USA'
p966
sg13
S'136.0.16.217'
p967
sg15
S'7808'
p968
sg17
S'45'
p969
sg19
S'19h 21mins'
p970
sa(dp971
g3
S'hk'
p972
sg5
S'High +KA'
p973
sg7
S'89'
p974
sg9
S'HTTP'
p975
sg11
S'Hong Kong'
p976
sg13
S'223.19.196.232'
p977
sg15
S'80'
p978
sg17
S'89'
p979
sg19
S'19h 48mins'
p980
sa(dp981
g3
S'de'
p982
sg5
S'High +KA'
p983
sg7
S'100'
p984
sg9
S'socks4/5'
p985
sg11
S'Germany'
p986
sg13
S'94.23.166.246'
p987
sg15
S'60088'
p988
sg17
S'100'
p989
sg19
S'20h 16mins'
p990
sa(dp991
g3
S'cn'
p992
sg5
S'High +KA'
p993
sg7
S'84'
p994
sg9
S'socks4/5'
p995
sg11
S'China'
p996
sg13
S'123.56.94.68'
p997
sg15
S'1080'
p998
sg17
S'84'
p999
sg19
S'20h 23mins'
p1000
sa(dp1001
g3
S'cn'
p1002
sg5
S'High +KA'
p1003
sg7
S'39'
p1004
sg9
S'HTTPS'
p1005
sg11
S'China'
p1006
sg13
S'60.29.248.142'
p1007
sg15
S'8080'
p1008
sg17
S'39'
p1009
sg19
S'20h 59mins'
p1010
sa(dp1011
g3
S'us'
p1012
sg5
S'High +KA'
p1013
sg7
S'45'
p1014
sg9
S'HTTPS'
p1015
sg11
S'USA'
p1016
sg13
S'108.165.33.7'
p1017
sg15
S'3128'
p1018
sg17
S'45'
p1019
sg19
S'22h 21mins'
p1020
sa.