(lp1
(dp2
S'home_team'
p3
V\u70cf\u5c3c\u5361\u4e9e
p4
sS'away_team'
p5
V\u66fc\u96f7\u85a9
p6
sS'away_line_odds'
p7
V1.75
p8
sS'home_money_line_odds'
p9
V
sS'under_odds'
p10
V1.75
p11
sS'over_num'
p12
V64
p13
sS'away_line_num'
p14
V88
p15
sS'away_money_line_odds'
p16
V
sS'home_line_odds'
p17
V1.75
p18
sS'away_money_line_num'
p19
S''
sS'over_odds'
p20
V1.75
p21
sS'over_under'
p22
V150.5
p23
sS'home_score'
p24
S'85'
p25
sS'away_line'
p26
V+13.5
p27
sS'home_money_line_num'
p28
S''
sS'date'
p29
S'20151228'
p30
sS'home_line_num'
p31
V142
p32
sS'away_score'
p33
S'58'
p34
sS'under_num'
p35
V58
p36
sS'id'
p37
S'370'
p38
sS'home_line'
p39
V-13.5
p40
sa(dp41
g3
V\u52de\u52d5\u8005\u9280\u884c
p42
sg5
V\u8c50\u62c9\u592b\u62c9\u9054
p43
sg7
V1.75
p44
sg9
V
sg10
V1.75
p45
sg12
V106
p46
sg14
V86
p47
sg16
V
sg17
V1.75
p48
sg19
S''
sg20
V1.75
p49
sg22
V160.5
p50
sg24
S'101'
p51
sg26
V+13.5
p52
sg28
S''
sg29
g30
sg31
V133
p53
sg33
S'79'
p54
sg35
V42
p55
sg37
S'371'
p56
sg39
V-13.5
p57
sa(dp58
g3
V\u85a9\u62c9\u6208\u85a9
p59
sg5
V\u8056\u585e\u5df4\u65af\u63d0\u5b89
p60
sg7
V1.75
p61
sg9
V
sg10
V1.75
p62
sg12
V67
p63
sg14
V66
p64
sg16
V
sg17
V1.75
p65
sg19
S''
sg20
V1.75
p66
sg22
V153.5
p67
sg24
S'80'
p68
sg26
V+11.5
p69
sg28
S''
sg29
g30
sg31
V130
p70
sg33
S'59'
p71
sg35
V42
p72
sg37
S'372'
p73
sg39
V-11.5
p74
sa(dp75
g3
V\u7687\u5bb6\u99ac\u5fb7\u91cc
p76
sg5
V\u5df4\u585e\u9686\u7d0d
p77
sg7
V1.75
p78
sg9
V1.25
p79
sg10
V1.75
p80
sg12
V140
p81
sg14
V110
p82
sg16
V2.85
p83
sg17
V1.75
p84
sg19
V13
p85
sg20
V1.75
p86
sg22
V162.5
p87
sg24
S'84'
p88
sg26
V+6.5
p89
sg28
V71
p90
sg29
g30
sg31
V146
p91
sg33
S'91'
p92
sg35
V30
p93
sg37
S'373'
p94
sg39
V-6.5
p95
sa(dp96
g3
V\u7a46\u723e\u897f\u4e9e
p97
sg5
V\u8499\u5df4\u65af
p98
sg7
V1.75
p99
sg9
V1.3
p100
sg10
V1.75
p101
sg12
V74
p102
sg14
V71
p103
sg16
V2.6
p104
sg17
V1.75
p105
sg19
V15
p106
sg20
V1.75
p107
sg22
V148.5
p108
sg24
S'87'
p109
sg26
V+5.5
p110
sg28
V60
p111
sg29
g30
sg31
V129
p112
sg33
S'83'
p113
sg35
V41
p114
sg37
S'374'
p115
sg39
V-5.5
p116
sa(dp117
g3
V\u963f\u745f\u6cd5\u5b78\u751f
p118
sg5
V\u8cfd\u7dad\u4e9e
p119
sg7
V1.75
p120
sg9
V1.45
p121
sg10
V1.75
p122
sg12
V54
p123
sg14
V72
p124
sg16
V2.15
p125
sg17
V1.75
p126
sg19
V16
p127
sg20
V1.75
p128
sg22
V156.5
p129
sg24
S'102'
p130
sg26
V+3.5
p131
sg28
V53
p132
sg29
S'20151227'
p133
sg31
V107
p134
sg33
S'76'
p135
sg35
V35
p136
sg37
S'366'
p137
sg39
V-3.5
p138
sa(dp139
g3
V\u52a0\u90a3\u5229\u65af
p140
sg5
V\u74e6\u502b\u897f\u4e9e
p141
sg7
V1.75
p142
sg9
V3.5
p143
sg10
V1.75
p144
sg12
V53
p145
sg14
V109
p146
sg16
V1.15
p147
sg17
V1.75
p148
sg19
V64
p149
sg20
V1.75
p150
sg22
V157.5
p151
sg24
S'82'
p152
sg26
V-8.5
p153
sg28
V10
p154
sg29
g133
sg31
V73
p155
sg33
S'86'
p156
sg35
V47
p157
sg37
S'367'
p158
sg39
V+8.5
p159
sa(dp160
g3
V\u5b89\u591a\u62c9
p161
sg5
V\u5927\u52a0\u90a3\u5229
p162
sg7
V1.75
p163
sg9
V1.9
p164
sg10
V1.75
p165
sg12
V63
p166
sg14
V111
p167
sg16
V1.6
p168
sg17
V1.75
p169
sg19
V48
p170
sg20
V1.75
p171
sg22
V153.5
p172
sg24
S'84'
p173
sg26
V-1.5
p174
sg28
V19
p175
sg29
g133
sg31
V64
p176
sg33
S'77'
p177
sg35
V31
p178
sg37
S'368'
p179
sg39
V+1.5
p180
sa(dp181
g3
V\u7562\u723e\u5305
p182
sg5
V\u5c24\u6587\u5716\u7279
p183
sg7
V1.75
p184
sg9
V1.2
p185
sg10
V1.75
p186
sg12
V81
p187
sg14
V84
p188
sg16
V3.1
p189
sg17
V1.75
p190
sg19
V7
sg20
V1.75
p191
sg22
V160.5
p192
sg24
S'85'
p193
sg26
V+7.5
p194
sg28
V58
p195
sg29
g133
sg31
V87
p196
sg33
S'77'
p197
sg35
V29
p198
sg37
S'369'
p199
sg39
V-7.5
p200
sa(dp201
g3
V\u8056\u585e\u5df4\u65af\u63d0\u5b89
p202
sg5
V\u52de\u52d5\u8005\u9280\u884c
p203
sg7
V1.75
p204
sg9
V
sg10
V1.75
p205
sg12
V96
p206
sg14
V174
p207
sg16
V
sg17
V1.75
p208
sg19
S''
sg20
V1.75
p209
sg22
V154.5
p210
sg24
S'83'
p211
sg26
V-10.5
p212
sg28
S''
sg29
S'20151224'
p213
sg31
V89
p214
sg33
S'91'
p215
sg35
V58
p216
sg37
S'342'
p217
sg39
V+10.5
p218
sa(dp219
g3
V\u8cfd\u7dad\u4e9e
p220
sg5
V\u52a0\u90a3\u5229\u65af
p221
sg7
V1.75
p222
sg9
V1.6
p223
sg10
V1.75
p224
sg12
V73
p225
sg14
V104
p226
sg16
V1.9
p227
sg17
V1.75
p228
sg19
V37
p229
sg20
V1.75
p230
sg22
V161.5
p231
sg24
S'81'
p232
sg26
V+1.5
p233
sg28
V60
p234
sg29
g213
sg31
V128
p235
sg33
S'76'
p236
sg35
V51
p237
sg37
S'344'
p238
sg39
V-1.5
p239
sa(dp240
g3
V\u66fc\u96f7\u85a9
p241
sg5
V\u85a9\u62c9\u6208\u85a9
p242
sg7
V1.75
p243
sg9
V1.9
p244
sg10
V1.75
p245
sg12
V74
p246
sg14
V172
p247
sg16
V1.6
p248
sg17
V1.75
p249
sg19
V75
p250
sg20
V1.75
p251
sg22
V151.5
p252
sg24
S'86'
p253
sg26
V-1.5
p254
sg28
V32
p255
sg29
g213
sg31
V100
p256
sg33
S'79'
p257
sg35
V58
p258
sg37
S'346'
p259
sg39
V+1.5
p260
sa(dp261
g3
V\u5df4\u585e\u9686\u7d0d
p262
sg5
V\u7562\u723e\u5305
p263
sg7
V1.75
p264
sg9
V
sg10
V1.75
p265
sg12
V118
p266
sg14
V150
p267
sg16
V
sg17
V1.75
p268
sg19
S''
sg20
V1.75
p269
sg22
V155.5
p270
sg24
S'66'
p271
sg26
V+15.5
p272
sg28
S''
sg29
g213
sg31
V109
p273
sg33
S'57'
p274
sg35
V45
p275
sg37
S'347'
p276
sg39
V-15.5
p277
sa(dp278
g3
V\u74e6\u502b\u897f\u4e9e
p279
sg5
V\u7a46\u723e\u897f\u4e9e
p280
sg7
V1.75
p281
sg9
V
sg10
V1.75
p282
sg12
V82
p283
sg14
V101
p284
sg16
V
sg17
V1.75
p285
sg19
S''
sg20
V1.75
p286
sg22
V155.5
p287
sg24
S'65'
p288
sg26
V+15.5
p289
sg28
S''
sg29
S'20151223'
p290
sg31
V150
p291
sg33
S'54'
p292
sg35
V67
p293
sg37
S'332'
p294
sg39
V-15.5
p295
sa(dp296
g3
V\u8499\u5df4\u65af
p297
sg5
V\u7687\u5bb6\u99ac\u5fb7\u91cc
p298
sg7
V1.75
p299
sg9
V
sg10
V1.75
p300
sg12
V122
p301
sg14
V205
p302
sg16
V
sg17
V1.75
p303
sg19
S''
sg20
V1.75
p304
sg22
V159.5
p305
sg24
S'63'
p306
sg26
V-11.5
p307
sg28
S''
sg29
g290
sg31
V82
p308
sg33
S'79'
p309
sg35
V49
p310
sg37
S'334'
p311
sg39
V+11.5
p312
sa(dp313
g3
V\u5c24\u6587\u5716\u7279
p314
sg5
V\u5b89\u591a\u62c9
p315
sg7
V1.75
p316
sg9
V1.25
p317
sg10
V1.75
p318
sg12
V61
p319
sg14
V107
p320
sg16
V2.85
p321
sg17
V1.75
p322
sg19
V13
p323
sg20
V1.75
p324
sg22
V157.5
p325
sg24
S'79'
p326
sg26
V+6.5
p327
sg28
V91
p328
sg29
g290
sg31
V154
p329
sg33
S'90'
p330
sg35
V62
p331
sg37
S'337'
p332
sg39
V-6.5
p333
sa(dp334
g3
V\u8c50\u62c9\u592b\u62c9\u9054
p335
sg5
V\u963f\u745f\u6cd5\u5b78\u751f
p336
sg7
V1.75
p337
sg9
V1.35
p338
sg10
V1.75
p339
sg12
V68
p340
sg14
V76
p341
sg16
V2.45
p342
sg17
V1.75
p343
sg19
V16
p344
sg20
V1.75
p345
sg22
V156.5
p346
sg24
S'85'
p347
sg26
V+4.5
p348
sg28
V82
p349
sg29
g290
sg31
V180
p350
sg33
S'71'
p351
sg35
V51
p352
sg37
S'343'
p353
sg39
V-4.5
p354
sa(dp355
g3
V\u5927\u52a0\u90a3\u5229
p356
sg5
V\u70cf\u5c3c\u5361\u4e9e
p357
sg7
V1.75
p358
sg9
V1.5
p359
sg10
V1.75
p360
sg12
V69
p361
sg14
V107
p362
sg16
V2.05
p363
sg17
V1.75
p364
sg19
V35
p365
sg20
V1.75
p366
sg22
V150.5
p367
sg24
S'98'
p368
sg26
V+2.5
p369
sg28
V74
p370
sg29
g290
sg31
V162
p371
sg33
S'65'
p372
sg35
V57
p373
sg37
S'345'
p374
sg39
V-2.5
p375
sa(dp376
g3
V\u52de\u52d5\u8005\u9280\u884c
p377
sg5
V\u8cfd\u7dad\u4e9e
p378
sg7
V1.75
p379
sg9
V
sg10
V1.75
p380
sg12
V96
p381
sg14
V106
p382
sg16
V
sg17
V1.75
p383
sg19
S''
sg20
V1.75
p384
sg22
V161.5
p385
sg24
S'89'
p386
sg26
V+17.5
p387
sg28
S''
sg29
S'20151221'
p388
sg31
V145
p389
sg33
S'73'
p390
sg35
V55
p391
sg37
S'359'
p392
sg39
V-17.5
p393
sa(dp394
g3
V\u85a9\u62c9\u6208\u85a9
p395
sg5
V\u70cf\u5c3c\u5361\u4e9e
p396
sg7
V1.75
p397
sg9
V2.6
p398
sg10
V1.75
p399
sg12
V101
p400
sg14
V130
p401
sg16
V1.3
p402
sg17
V1.75
p403
sg19
V63
p404
sg20
V1.75
p405
sg22
V155.5
p406
sg24
S'76'
p407
sg26
V-5.5
p408
sg28
V17
p409
sg29
g388
sg31
V145
p410
sg33
S'72'
p411
sg35
V67
p412
sg37
S'360'
p413
sg39
V+5.5
p414
sa(dp415
g3
V\u5df4\u585e\u9686\u7d0d
p416
sg5
V\u5c24\u6587\u5716\u7279
p417
sg7
V1.75
p418
sg9
V
sg10
V1.75
p419
sg12
V130
p420
sg14
V102
p421
sg16
V
sg17
V1.75
p422
sg19
S''
sg20
V1.75
p423
sg22
V155.5
p424
sg24
S'83'
p425
sg26
V+13.5
p426
sg28
S''
sg29
g388
sg31
V189
p427
sg33
S'74'
p428
sg35
V58
p429
sg37
S'361'
p430
sg39
V-13.5
p431
sa(dp432
g3
V\u8c50\u62c9\u592b\u62c9\u9054
p433
sg5
V\u8499\u5df4\u65af
p434
sg7
V1.75
p435
sg9
V1.35
p436
sg10
V1.75
p437
sg12
V72
p438
sg14
V106
p439
sg16
V2.45
p440
sg17
V1.75
p441
sg19
V20
p442
sg20
V1.75
p443
sg22
V150.5
p444
sg24
S'90'
p445
sg26
V+4.5
p446
sg28
V64
p447
sg29
S'20151220'
p448
sg31
V119
p449
sg33
S'85'
p450
sg35
V49
p451
sg37
S'353'
p452
sg39
V-4.5
p453
sa(dp454
g3
V\u7562\u723e\u5305
p455
sg5
V\u963f\u745f\u6cd5\u5b78\u751f
p456
sg7
V1.75
p457
sg9
V1.1
p458
sg10
V1.75
p459
sg12
V84
p460
sg14
V61
p461
sg16
V4
sg17
V1.75
p462
sg19
V4
sg20
V1.75
p463
sg22
V156.5
p464
sg24
S'85'
p465
sg26
V+9.5
p466
sg28
V108
p467
sg29
g448
sg31
V190
p468
sg33
S'91'
p469
sg35
V57
p470
sg37
S'354'
p471
sg39
V-9.5
p472
sa(dp473
g3
V\u52a0\u90a3\u5229\u65af
p474
sg5
V\u8056\u585e\u5df4\u65af\u63d0\u5b89
p475
sg7
V1.75
p476
sg9
V
sg10
V1.75
p477
sg12
V85
p478
sg14
V93
p479
sg16
V
sg17
V1.75
p480
sg19
S''
sg20
V1.75
p481
sg22
V153.5
p482
sg24
S'72'
p483
sg26
V+12.5
p484
sg28
S''
sg29
g448
sg31
V118
p485
sg33
S'74'
p486
sg35
V51
p487
sg37
S'355'
p488
sg39
V-12.5
p489
sa(dp490
g3
V\u7a46\u723e\u897f\u4e9e
p491
sg5
V\u5927\u52a0\u90a3\u5229
p492
sg7
V1.75
p493
sg9
V2.05
p494
sg10
V1.75
p495
sg12
V25
p496
sg14
V54
p497
sg16
V1.5
p498
sg17
V1.75
p499
sg19
V29
p500
sg20
V1.75
p501
sg22
V152.5
p502
sg24
S'71'
p503
sg26
V-2.5
p504
sg28
V12
p505
sg29
g448
sg31
V48
p506
sg33
S'75'
p507
sg35
V37
p508
sg37
S'356'
p509
sg39
V+2.5
p510
sa(dp511
g3
V\u5b89\u591a\u62c9
p512
sg5
V\u7687\u5bb6\u99ac\u5fb7\u91cc
p513
sg7
V1.75
p514
sg9
V
sg10
V1.75
p515
sg12
V51
p516
sg14
V83
p517
sg16
V
sg17
V1.75
p518
sg19
S''
sg20
V1.75
p519
sg22
V163.5
p520
sg24
S'80'
p521
sg26
V-10.5
p522
sg28
S''
sg29
g448
sg31
V28
p523
sg33
S'99'
p524
sg35
V23
p525
sg37
S'357'
p526
sg39
V+10.5
p527
sa(dp528
g3
V\u66fc\u96f7\u85a9
p529
sg5
V\u74e6\u502b\u897f\u4e9e
p530
sg7
V1.75
p531
sg9
V3.5
p532
sg10
V1.75
p533
sg12
V43
p534
sg14
V72
p535
sg16
V1.15
p536
sg17
V1.75
p537
sg19
V41
p538
sg20
V1.75
p539
sg22
V153.5
p540
sg24
S'62'
p541
sg26
V-8.5
p542
sg28
V3
sg29
g448
sg31
V35
p543
sg33
S'74'
p544
sg35
V21
p545
sg37
S'358'
p546
sg39
V+8.5
p547
sa(dp548
g3
V\u70cf\u5c3c\u5361\u4e9e
p549
sg5
V\u5df4\u585e\u9686\u7d0d
p550
sg7
V1.75
p551
sg9
V2.45
p552
sg10
V1.75
p553
sg12
V97
p554
sg14
V170
p555
sg16
V1.35
p556
sg17
V1.75
p557
sg19
V85
p558
sg20
V1.75
p559
sg22
V151.5
p560
sg24
S'77'
p561
sg26
V-4.5
p562
sg28
V12
p563
sg29
S'20151214'
p564
sg31
V102
p565
sg33
S'81'
p566
sg35
V62
p567
sg37
S'357'
p568
sg39
V+4.5
p569
sa(dp570
g3
V\u8056\u585e\u5df4\u65af\u63d0\u5b89
p571
sg5
V\u7a46\u723e\u897f\u4e9e
p572
sg7
V1.75
p573
sg9
V2.15
p574
sg10
V1.75
p575
sg12
V69
p576
sg14
V148
p577
sg16
V1.45
p578
sg17
V1.75
p579
sg19
V59
p580
sg20
V1.75
p581
sg22
V149.5
p582
sg24
S'67'
p583
sg26
V-3.5
p584
sg28
V20
p585
sg29
g564
sg31
V75
p586
sg33
S'76'
p587
sg35
V64
p588
sg37
S'358'
p589
sg39
V+3.5
p590
sa(dp591
g3
V\u7687\u5bb6\u99ac\u5fb7\u91cc
p592
sg5
V\u5927\u52a0\u90a3\u5229
p593
sg7
V1.75
p594
sg9
V
sg10
V1.75
p595
sg12
V131
p596
sg14
V102
p597
sg16
V
sg17
V1.75
p598
sg19
S''
sg20
V1.75
p599
sg22
V163.5
p600
sg24
S'85'
p601
sg26
V+11.5
p602
sg28
S''
sg29
g564
sg31
V158
p603
sg33
S'68'
p604
sg35
V62
p605
sg37
S'359'
p606
sg39
V-11.5
p607
sa(dp608
g3
V\u74e6\u502b\u897f\u4e9e
p609
sg5
V\u8c50\u62c9\u592b\u62c9\u9054
p610
sg7
V1.75
p611
sg9
V
sg10
V1.75
p612
sg12
V73
p613
sg14
V85
p614
sg16
V
sg17
V1.75
p615
sg19
S''
sg20
V1.75
p616
sg22
V154.5
p617
sg24
S'100'
p618
sg26
V+14.5
p619
sg28
S''
sg29
S'20151213'
p620
sg31
V151
p621
sg33
S'84'
p622
sg35
V78
p623
sg37
S'334'
p624
sg39
V-14.5
p625
sa(dp626
g3
V\u8499\u5df4\u65af
p627
sg5
V\u66fc\u96f7\u85a9
p628
sg7
V1.75
p629
sg9
V1.15
p630
sg10
V1.75
p631
sg12
V100
p632
sg14
V130
p633
sg16
V3.5
p634
sg17
V1.75
p635
sg19
V5
sg20
V1.75
p636
sg22
V147.5
p637
sg24
S'71'
p638
sg26
V+8.5
p639
sg28
V76
p640
sg29
g620
sg31
V130
p641
sg33
S'79'
p642
sg35
V62
p643
sg37
S'352'
p644
sg39
V-8.5
p645
sa(dp646
g3
V\u7562\u723e\u5305
p647
sg5
V\u52de\u52d5\u8005\u9280\u884c
p648
sg7
V1.85
p649
sg9
V1.8
p650
sg10
V1.75
p651
sg12
V44
p652
sg14
V59
p653
sg16
V1.7
p654
sg17
V1.65
p655
sg19
V22
p656
sg20
V1.75
p657
sg22
V162.5
p658
sg24
S'89'
p659
sg26
V-1.5
p660
sg28
V20
p661
sg29
g620
sg31
V52
p662
sg33
S'83'
p663
sg35
V10
p664
sg37
S'353'
p665
sg39
V+1.5
p666
sa(dp667
g3
V\u963f\u745f\u6cd5\u5b78\u751f
p668
sg5
V\u5b89\u591a\u62c9
p669
sg7
V1.75
p670
sg9
V1.5
p671
sg10
V1.75
p672
sg12
V23
p673
sg14
V48
p674
sg16
V2.05
p675
sg17
V1.75
p676
sg19
V15
p677
sg20
V1.75
p678
sg22
V154.5
p679
sg24
S'75'
p680
sg26
V+2.5
p681
sg28
V29
p682
sg29
g620
sg31
V59
p683
sg33
S'82'
p684
sg35
V18
p685
sg37
S'354'
p686
sg39
V-2.5
p687
sa(dp688
g3
V\u8cfd\u7dad\u4e9e
p689
sg5
V\u5c24\u6587\u5716\u7279
p690
sg7
V1.75
p691
sg9
V2.05
p692
sg10
V1.75
p693
sg12
V34
p694
sg14
V67
p695
sg16
V1.5
p696
sg17
V1.75
p697
sg19
V24
p698
sg20
V1.75
p699
sg22
V156.5
p700
sg24
S'106'
p701
sg26
V-2.5
p702
sg28
V18
p703
sg29
g620
sg31
V46
p704
sg33
S'101'
p705
sg35
V12
p706
sg37
S'355'
p707
sg39
V+2.5
p708
sa(dp709
g3
V\u52a0\u90a3\u5229\u65af
p710
sg5
V\u85a9\u62c9\u6208\u85a9
p711
sg7
V1.75
p712
sg9
V1.35
p713
sg10
V1.75
p714
sg12
V29
p715
sg14
V56
p716
sg16
V2.45
p717
sg17
V1.75
p718
sg19
V11
p719
sg20
V1.75
p720
sg22
V154.5
p721
sg24
S'82'
p722
sg26
V+4.5
p723
sg28
V22
p724
sg29
g620
sg31
V47
p725
sg33
S'78'
p726
sg35
V20
p727
sg37
S'356'
p728
sg39
V-4.5
p729
sa(dp730
g3
V\u52de\u52d5\u8005\u9280\u884c
p731
sg5
V\u52a0\u90a3\u5229\u65af
p732
sg7
V1.75
p733
sg9
V
sg10
V1.75
p734
sg12
V96
p735
sg14
V97
p736
sg16
V
sg17
V1.75
p737
sg19
S''
sg20
V1.75
p738
sg22
V161.5
p739
sg24
S'92'
p740
sg26
V+13.5
p741
sg28
S''
sg29
S'20151207'
p742
sg31
V168
p743
sg33
S'98'
p744
sg35
V67
p745
sg37
S'377'
p746
sg39
V-13.5
p747
sa(dp748
g3
V\u66fc\u96f7\u85a9
p749
sg5
V\u5df4\u585e\u9686\u7d0d
p750
sg7
V1.75
p751
sg9
V
sg10
V1.75
p752
sg12
V131
p753
sg14
V157
p754
sg16
V
sg17
V1.75
p755
sg19
S''
sg20
V1.75
p756
sg22
V152.5
p757
sg24
S'60'
p758
sg26
V-14.5
p759
sg28
S''
sg29
g742
sg31
V107
p760
sg33
S'75'
p761
sg35
V53
p762
sg37
S'378'
p763
sg39
V+14.5
p764
sa(dp765
g3
V\u963f\u745f\u6cd5\u5b78\u751f
p766
sg5
V\u85a9\u62c9\u6208\u85a9
p767
sg7
V1.75
p768
sg9
V1.6
p769
sg10
V1.75
p770
sg12
V115
p771
sg14
V145
p772
sg16
V1.9
p773
sg17
V1.75
p774
sg19
V33
p775
sg20
V1.75
p776
sg22
V150.5
p777
sg24
S'110'
p778
sg26
V+1.5
p779
sg28
V51
p780
sg29
g742
sg31
V119
p781
sg33
S'116'
p782
sg35
V53
p783
sg37
S'379'
p784
sg39
V-1.5
p785
sa(dp786
g3
V\u8c50\u62c9\u592b\u62c9\u9054
p787
sg5
V\u7562\u723e\u5305
p788
sg7
V1.75
p789
sg9
V2.15
p790
sg10
V1.75
p791
sg12
V98
p792
sg14
V207
p793
sg16
V1.45
p794
sg17
V1.75
p795
sg19
V90
p796
sg20
V1.75
p797
sg22
V154.5
p798
sg24
S'79'
p799
sg26
V-3.5
p800
sg28
V18
p801
sg29
S'20151206'
p802
sg31
V104
p803
sg33
S'75'
p804
sg35
V65
p805
sg37
S'366'
p806
sg39
V+3.5
p807
sa(dp808
g3
V\u5b89\u591a\u62c9
p809
sg5
V\u8056\u585e\u5df4\u65af\u63d0\u5b89
p810
sg7
V1.75
p811
sg9
V
sg10
V1.75
p812
sg12
V99
p813
sg14
V120
p814
sg16
V
sg17
V1.75
p815
sg19
S''
sg20
V1.75
p816
sg22
V149.5
p817
sg24
S'88'
p818
sg26
V+10.5
p819
sg28
S''
sg29
g802
sg31
V149
p820
sg33
S'70'
p821
sg35
V79
p822
sg37
S'367'
p823
sg39
V-10.5
p824
sa(dp825
g3
V\u8cfd\u7dad\u4e9e
p826
sg5
V\u74e6\u502b\u897f\u4e9e
p827
sg7
V1.75
p828
sg9
V3.5
p829
sg10
V1.75
p830
sg12
V31
p831
sg14
V65
p832
sg16
V1.15
p833
sg17
V1.75
p834
sg19
V44
p835
sg20
V1.75
p836
sg22
V156.5
p837
sg24
S'67'
p838
sg26
V-8.5
p839
sg28
V2
sg29
g802
sg31
V43
p840
sg33
S'81'
p841
sg35
V23
p842
sg37
S'373'
p843
sg39
V+8.5
p844
sa(dp845
g3
V\u7687\u5bb6\u99ac\u5fb7\u91cc
p846
sg5
V\u7a46\u723e\u897f\u4e9e
p847
sg7
V1.75
p848
sg9
V
sg10
V1.75
p849
sg12
V36
p850
sg14
V40
p851
sg16
V
sg17
V1.75
p852
sg19
S''
sg20
V1.75
p853
sg22
V164.5
p854
sg24
S'101'
p855
sg26
V+16.5
p856
sg28
S''
sg29
g802
sg31
V69
p857
sg33
S'80'
p858
sg35
V20
p859
sg37
S'374'
p860
sg39
V-16.5
p861
sa(dp862
g3
V\u5927\u52a0\u90a3\u5229
p863
sg5
V\u8499\u5df4\u65af
p864
sg7
V1.75
p865
sg9
V1.2
p866
sg10
V1.75
p867
sg12
V20
p868
sg14
V43
p869
sg16
V3.1
p870
sg17
V1.75
p871
sg19
V3
sg20
V1.75
p872
sg22
V146.5
p873
sg24
S'88'
p874
sg26
V+7.5
p875
sg28
V37
p876
sg29
g802
sg31
V66
p877
sg33
S'75'
p878
sg35
V34
p879
sg37
S'375'
p880
sg39
V-7.5
p881
sa(dp882
g3
V\u5c24\u6587\u5716\u7279
p883
sg5
V\u70cf\u5c3c\u5361\u4e9e
p884
sg7
V1.75
p885
sg9
V2.05
p886
sg10
V1.75
p887
sg12
V28
p888
sg14
V55
p889
sg16
V1.5
p890
sg17
V1.75
p891
sg19
V20
p892
sg20
V1.75
p893
sg22
V154.5
p894
sg24
S'84'
p895
sg26
V-2.5
p896
sg28
V24
p897
sg29
g802
sg31
V60
p898
sg33
S'90'
p899
sg35
V27
p900
sg37
S'376'
p901
sg39
V+2.5
p902
sa(dp903
g3
V\u8056\u585e\u5df4\u65af\u63d0\u5b89
p904
sg5
V\u8cfd\u7dad\u4e9e
p905
sg7
V1.75
p906
sg9
V1.5
p907
sg10
V1.75
p908
sg12
V53
p909
sg14
V129
p910
sg16
V2.05
p911
sg17
V1.75
p912
sg19
V36
p913
sg20
V1.75
p914
sg22
V150.5
p915
sg24
S'68'
p916
sg26
V+2.5
p917
sg28
V51
p918
sg29
S'20151130'
p919
sg31
V106
p920
sg33
S'76'
p921
sg35
V72
p922
sg37
S'308'
p923
sg39
V-2.5
p924
sa(dp925
g3
V\u7562\u723e\u5305
p926
sg5
V\u7687\u5bb6\u99ac\u5fb7\u91cc
p927
sg7
V1.75
p928
sg9
V2.85
p929
sg10
V1.75
p930
sg12
V105
p931
sg14
V193
p932
sg16
V1.25
p933
sg17
V1.75
p934
sg19
V102
p935
sg20
V1.75
p936
sg22
V165.5
p937
sg24
S'92'
p938
sg26
V-6.5
p939
sg28
V7
sg29
g919
sg31
V83
p940
sg33
S'99'
p941
sg35
V52
p942
sg37
S'309'
p943
sg39
V+6.5
p944
sa(dp945
g3
V\u74e6\u502b\u897f\u4e9e
p946
sg5
V\u5927\u52a0\u90a3\u5229
p947
sg7
V1.75
p948
sg9
V1.2
p949
sg10
V1.75
p950
sg12
V102
p951
sg14
V71
p952
sg16
V3.1
p953
sg17
V1.75
p954
sg19
V8
sg20
V1.75
p955
sg22
V153.5
p956
sg24
S'86'
p957
sg26
V+7.5
p958
sg28
V98
p959
sg29
g919
sg31
V157
p960
sg33
S'61'
p961
sg35
V41
p962
sg37
S'310'
p963
sg39
V-7.5
p964
sa(dp965
g3
V\u8499\u5df4\u65af
p966
sg5
V\u5c24\u6587\u5716\u7279
p967
sg7
V1.75
p968
sg9
V1.5
p969
sg10
V1.75
p970
sg12
V88
p971
sg14
V113
p972
sg16
V2.05
p973
sg17
V1.75
p974
sg19
V36
p975
sg20
V1.75
p976
sg22
V148.5
p977
sg24
S'83'
p978
sg26
V+2.5
p979
sg28
V68
p980
sg29
S'20151129'
p981
sg31
V155
p982
sg33
S'79'
p983
sg35
V76
p984
sg37
S'329'
p985
sg39
V-2.5
p986
sa(dp987
g3
V\u7a46\u723e\u897f\u4e9e
p988
sg5
V\u5b89\u591a\u62c9
p989
sg7
V1.75
p990
sg9
V1.3
p991
sg10
V1.75
p992
sg12
V23
p993
sg14
V39
p994
sg16
V2.6
p995
sg17
V1.75
p996
sg19
V7
sg20
V1.75
p997
sg22
V153.5
p998
sg24
S'76'
p999
sg26
V+5.5
p1000
sg28
V26
p1001
sg29
g981
sg31
V72
p1002
sg33
S'72'
p1003
sg35
V25
p1004
sg37
S'300'
p1005
sg39
V-5.5
p1006
sa(dp1007
g3
V\u85a9\u62c9\u6208\u85a9
p1008
sg5
V\u52de\u52d5\u8005\u9280\u884c
p1009
sg7
V1.75
p1010
sg9
V2.6
p1011
sg10
V1.75
p1012
sg12
V37
p1013
sg14
V56
p1014
sg16
V1.3
p1015
sg17
V1.75
p1016
sg19
V33
p1017
sg20
V1.75
p1018
sg22
V157.5
p1019
sg24
S'66'
p1020
sg26
V-5.5
p1021
sg28
V5
sg29
g981
sg31
V61
p1022
sg33
S'90'
p1023
sg35
V14
p1024
sg37
S'302'
p1025
sg39
V+5.5
p1026
sa(dp1027
g3
V\u52a0\u90a3\u5229\u65af
p1028
sg5
V\u66fc\u96f7\u85a9
p1029
sg7
V1.75
p1030
sg9
V1.2
p1031
sg10
V1.75
p1032
sg12
V21
p1033
sg14
V48
p1034
sg16
V3.1
p1035
sg17
V1.75
p1036
sg19
V4
sg20
V1.75
p1037
sg22
V155.5
p1038
sg24
S'65'
p1039
sg26
V+7.5
p1040
sg28
V26
p1041
sg29
g981
sg31
V55
p1042
sg33
S'71'
p1043
sg35
V19
p1044
sg37
S'303'
p1045
sg39
V-7.5
p1046
sa(dp1047
g3
V\u70cf\u5c3c\u5361\u4e9e
p1048
sg5
V\u963f\u745f\u6cd5\u5b78\u751f
p1049
sg7
V1.75
p1050
sg9
V
sg10
V1.75
p1051
sg12
V38
p1052
sg14
V43
p1053
sg16
V
sg17
V1.75
p1054
sg19
S''
sg20
V1.75
p1055
sg22
V150.5
p1056
sg24
S'89'
p1057
sg26
V+10.5
p1058
sg28
S''
sg29
g981
sg31
V56
p1059
sg33
S'59'
p1060
sg35
V22
p1061
sg37
S'305'
p1062
sg39
V-10.5
p1063
sa(dp1064
g3
V\u5df4\u585e\u9686\u7d0d
p1065
sg5
V\u8c50\u62c9\u592b\u62c9\u9054
p1066
sg7
V1.75
p1067
sg9
V
sg10
V1.75
p1068
sg12
V37
p1069
sg14
V46
p1070
sg16
V
sg17
V1.75
p1071
sg19
S''
sg20
V1.75
p1072
sg22
V153.5
p1073
sg24
S'76'
p1074
sg26
V+18.5
p1075
sg28
S''
sg29
g981
sg31
V61
p1076
sg33
S'65'
p1077
sg35
V21
p1078
sg37
S'307'
p1079
sg39
V-18.5
p1080
sa(dp1081
g3
V\u8499\u5df4\u65af
p1082
sg5
V\u963f\u745f\u6cd5\u5b78\u751f
p1083
sg7
V1.75
p1084
sg9
V1.3
p1085
sg10
V1.75
p1086
sg12
V49
p1087
sg14
V68
p1088
sg16
V2.6
p1089
sg17
V1.75
p1090
sg19
V9
sg20
V1.75
p1091
sg22
V147.5
p1092
sg24
S'73'
p1093
sg26
V+5.5
p1094
sg28
V83
p1095
sg29
S'20151123'
p1096
sg31
V179
p1097
sg33
S'71'
p1098
sg35
V72
p1099
sg37
S'360'
p1100
sg39
V-5.5
p1101
sa(dp1102
g3
V\u52de\u52d5\u8005\u9280\u884c
p1103
sg5
V\u5df4\u585e\u9686\u7d0d
p1104
sg7
V1.75
p1105
sg9
V2.05
p1106
sg10
V1.75
p1107
sg12
V109
p1108
sg14
V167
p1109
sg16
V1.5
p1110
sg17
V1.75
p1111
sg19
V85
p1112
sg20
V1.75
p1113
sg22
V158.5
p1114
sg24
S'87'
p1115
sg26
V-2.5
p1116
sg28
V25
p1117
sg29
g1096
sg31
V106
p1118
sg33
S'79'
p1119
sg35
V38
p1120
sg37
S'367'
p1121
sg39
V+2.5
p1122
sa(dp1123
g3
V\u66fc\u96f7\u85a9
p1124
sg5
V\u7a46\u723e\u897f\u4e9e
p1125
sg7
V1.75
p1126
sg9
V1.9
p1127
sg10
V1.75
p1128
sg12
V69
p1129
sg14
V99
p1130
sg16
V1.6
p1131
sg17
V1.75
p1132
sg19
V46
p1133
sg20
V1.75
p1134
sg22
V152.5
p1135
sg24
S'77'
p1136
sg26
V-1.5
p1137
sg28
V57
p1138
sg29
g1096
sg31
V135
p1139
sg33
S'69'
p1140
sg35
V40
p1141
sg37
S'366'
p1142
sg39
V+1.5
p1143
sa(dp1144
g3
V\u5c24\u6587\u5716\u7279
p1145
sg5
V\u7687\u5bb6\u99ac\u5fb7\u91cc
p1146
sg7
V1.75
p1147
sg9
V3.1
p1148
sg10
V1.75
p1149
sg12
V121
p1150
sg14
V148
p1151
sg16
V1.2
p1152
sg17
V1.75
p1153
sg19
V88
p1154
sg20
V1.75
p1155
sg22
V165.5
p1156
sg24
S'69'
p1157
sg26
V-7.5
p1158
sg28
V9
sg29
g1096
sg31
V111
p1159
sg33
S'79'
p1160
sg35
V38
p1161
sg37
S'368'
p1162
sg39
V+7.5
p1163
sa(dp1164
g3
V\u8c50\u62c9\u592b\u62c9\u9054
p1165
sg5
V\u52a0\u90a3\u5229\u65af
p1166
sg7
V1.75
p1167
sg9
V1.35
p1168
sg10
V1.75
p1169
sg12
V112
p1170
sg14
V112
p1171
sg16
V2.45
p1172
sg17
V1.75
p1173
sg19
V15
p1174
sg20
V1.75
p1175
sg22
V152.5
p1176
sg24
S'85'
p1177
sg26
V+4.5
p1178
sg28
V92
p1179
sg29
S'20151122'
p1180
sg31
V166
p1181
sg33
S'94'
p1182
sg35
V62
p1183
sg37
S'362'
p1184
sg39
V-4.5
p1185
sa(dp1186
g3
V\u8cfd\u7dad\u4e9e
p1187
sg5
V\u7562\u723e\u5305
p1188
sg7
V1.75
p1189
sg9
V2.05
p1190
sg10
V1.75
p1191
sg12
V51
p1192
sg14
V81
p1193
sg16
V1.5
p1194
sg17
V1.75
p1195
sg19
V44
p1196
sg20
V1.75
p1197
sg22
V155.5
p1198
sg24
S'71'
p1199
sg26
V-2.5
p1200
sg28
V15
p1201
sg29
g1180
sg31
V52
p1202
sg33
S'81'
p1203
sg35
V22
p1204
sg37
S'363'
p1205
sg39
V+2.5
p1206
sa(dp1207
g3
V\u74e6\u502b\u897f\u4e9e
p1208
sg5
V\u8056\u585e\u5df4\u65af\u63d0\u5b89
p1209
sg7
V1.75
p1210
sg9
V
sg10
V1.75
p1211
sg12
V38
p1212
sg14
V34
p1213
sg16
V
sg17
V1.75
p1214
sg19
S''
sg20
V1.75
p1215
sg22
V151.5
p1216
sg24
S'92'
p1217
sg26
V+19.5
p1218
sg28
S''
sg29
g1180
sg31
V94
p1219
sg33
S'65'
p1220
sg35
V31
p1221
sg37
S'361'
p1222
sg39
V-19.5
p1223
sa(dp1224
g3
V\u5b89\u591a\u62c9
p1225
sg5
V\u70cf\u5c3c\u5361\u4e9e
p1226
sg7
V1.75
p1227
sg9
V2.6
p1228
sg10
V1.75
p1229
sg12
V40
p1230
sg14
V65
p1231
sg16
V1.3
p1232
sg17
V1.75
p1233
sg19
V44
p1234
sg20
V1.75
p1235
sg22
V153.5
p1236
sg24
S'82'
p1237
sg26
V-5.5
p1238
sg28
V5
sg29
g1180
sg31
V53
p1239
sg33
S'79'
p1240
sg35
V28
p1241
sg37
S'364'
p1242
sg39
V+5.5
p1243
sa(dp1244
g3
V\u5927\u52a0\u90a3\u5229
p1245
sg5
V\u85a9\u62c9\u6208\u85a9
p1246
sg7
V1.75
p1247
sg9
V1.15
p1248
sg10
V1.75
p1249
sg12
V45
p1250
sg14
V55
p1251
sg16
V3.5
p1252
sg17
V1.75
p1253
sg19
V6
sg20
V1.75
p1254
sg22
V147.5
p1255
sg24
S'91'
p1256
sg26
V+8.5
p1257
sg28
V50
p1258
sg29
g1180
sg31
V76
p1259
sg33
S'79'
p1260
sg35
V27
p1261
sg37
S'365'
p1262
sg39
V-8.5
p1263
sa(dp1264
g3
V\u52de\u52d5\u8005\u9280\u884c
p1265
sg5
V\u7a46\u723e\u897f\u4e9e
p1266
sg7
V1.75
p1267
sg9
V1.15
p1268
sg10
V1.75
p1269
sg12
V58
p1270
sg14
V77
p1271
sg16
V3.5
p1272
sg17
V1.75
p1273
sg19
V7
sg20
V1.75
p1274
sg22
V157.5
p1275
sg24
S'90'
p1276
sg26
V+8.5
p1277
sg28
V70
p1278
sg29
S'20151116'
p1279
sg31
V132
p1280
sg33
S'67'
p1281
sg35
V45
p1282
sg37
S'318'
p1283
sg39
V-8.5
p1284
sa(dp1285
g3
V\u7562\u723e\u5305
p1286
sg5
V\u74e6\u502b\u897f\u4e9e
p1287
sg7
V1.75
p1288
sg9
V2.05
p1289
sg10
V1.75
p1290
sg12
V84
p1291
sg14
V145
p1292
sg16
V1.5
p1293
sg17
V1.75
p1294
sg19
V65
p1295
sg20
V1.75
p1296
sg22
V153.5
p1297
sg24
S'104'
p1298
sg26
V-2.5
p1299
sg28
V29
p1300
sg29
g1279
sg31
V94
p1301
sg33
S'111'
p1302
sg35
V30
p1303
sg37
S'329'
p1304
sg39
V+2.5
p1305
sa(dp1306
g3
V\u8056\u585e\u5df4\u65af\u63d0\u5b89
p1307
sg5
V\u8c50\u62c9\u592b\u62c9\u9054
p1308
sg7
V1.75
p1309
sg9
V1.5
p1310
sg10
V1.75
p1311
sg12
V38
p1312
sg14
V72
p1313
sg16
V2.05
p1314
sg17
V1.75
p1315
sg19
V21
p1316
sg20
V1.75
p1317
sg22
V148.5
p1318
sg24
S'68'
p1319
sg26
V+2.5
p1320
sg28
V58
p1321
sg29
g1279
sg31
V103
p1322
sg33
S'82'
p1323
sg35
V53
p1324
sg37
S'330'
p1325
sg39
V-2.5
p1326
sa(dp1327
g3
V\u963f\u745f\u6cd5\u5b78\u751f
p1328
sg5
V\u5c24\u6587\u5716\u7279
p1329
sg7
V1.65
p1330
sg9
V1.7
p1331
sg10
V1.75
p1332
sg12
V55
p1333
sg14
V133
p1334
sg16
V1.8
p1335
sg17
V1.85
p1336
sg19
V53
p1337
sg20
V1.75
p1338
sg22
V152.5
p1339
sg24
S'83'
p1340
sg26
V+1.5
p1341
sg28
V31
p1342
sg29
g1279
sg31
V84
p1343
sg33
S'86'
p1344
sg35
V31
p1345
sg37
S'331'
p1346
sg39
V-1.5
p1347
sa(dp1348
g3
V\u52a0\u90a3\u5229\u65af
p1349
sg5
V\u5927\u52a0\u90a3\u5229
p1350
sg7
V1.75
p1351
sg9
V2.45
p1352
sg10
V1.75
p1353
sg12
V78
p1354
sg14
V140
p1355
sg16
V1.35
p1356
sg17
V1.75
p1357
sg19
V77
p1358
sg20
V1.75
p1359
sg22
V152.5
p1360
sg24
S'65'
p1361
sg26
V-4.5
p1362
sg28
V13
p1363
sg29
g1279
sg31
V79
p1364
sg33
S'63'
p1365
sg35
V39
p1366
sg37
S'332'
p1367
sg39
V+4.5
p1368
sa(dp1369
g3
V\u85a9\u62c9\u6208\u85a9
p1370
sg5
V\u5b89\u591a\u62c9
p1371
sg7
V1.75
p1372
sg9
V1.15
p1373
sg10
V1.75
p1374
sg12
V38
p1375
sg14
V48
p1376
sg16
V3.5
p1377
sg17
V1.75
p1378
sg19
V4
sg20
V1.75
p1379
sg22
V150.5
p1380
sg24
S'73'
p1381
sg26
V+8.5
p1382
sg28
V50
p1383
sg29
S'20151115'
p1384
sg31
V99
p1385
sg33
S'80'
p1386
sg35
V23
p1387
sg37
S'314'
p1388
sg39
V-8.5
p1389
sa(dp1390
g3
V\u7687\u5bb6\u99ac\u5fb7\u91cc
p1391
sg5
V\u66fc\u96f7\u85a9
p1392
sg7
V1.75
p1393
sg9
V
sg10
V1.75
p1394
sg12
V51
p1395
sg14
V68
p1396
sg16
V
sg17
V1.75
p1397
sg19
S''
sg20
V1.75
p1398
sg22
V162.5
p1399
sg24
S'106'
p1400
sg26
V+21.5
p1401
sg28
S''
sg29
g1384
sg31
V79
p1402
sg33
S'68'
p1403
sg35
V36
p1404
sg37
S'315'
p1405
sg39
V-21.5
p1406
sa(dp1407
g3
V\u5df4\u585e\u9686\u7d0d
p1408
sg5
V\u8499\u5df4\u65af
p1409
sg7
V1.75
p1410
sg9
V
sg10
V1.75
p1411
sg12
V44
p1412
sg14
V67
p1413
sg16
V
sg17
V1.75
p1414
sg19
S''
sg20
V1.75
p1415
sg22
V148.5
p1416
sg24
S'67'
p1417
sg26
V+16.5
p1418
sg28
S''
sg29
g1384
sg31
V79
p1419
sg33
S'57'
p1420
sg35
V28
p1421
sg37
S'316'
p1422
sg39
V-16.5
p1423
sa(dp1424
g3
V\u8cfd\u7dad\u4e9e
p1425
sg5
V\u70cf\u5c3c\u5361\u4e9e
p1426
sg7
V1.75
p1427
sg9
V2.85
p1428
sg10
V1.75
p1429
sg12
V45
p1430
sg14
V101
p1431
sg16
V1.25
p1432
sg17
V1.75
p1433
sg19
V56
p1434
sg20
V1.75
p1435
sg22
V150.5
p1436
sg24
S'94'
p1437
sg26
V-6.5
p1438
sg28
V3
sg29
g1384
sg31
V53
p1439
sg33
S'84'
p1440
sg35
V25
p1441
sg37
S'317'
p1442
sg39
V+6.5
p1443
sa(dp1444
g3
V\u963f\u745f\u6cd5\u5b78\u751f
p1445
sg5
V\u7687\u5bb6\u99ac\u5fb7\u91cc
p1446
sg7
V1.75
p1447
sg9
V
sg10
V1.75
p1448
sg12
V134
p1449
sg14
V169
p1450
sg16
V
sg17
V1.75
p1451
sg19
S''
sg20
V1.75
p1452
sg22
V159.5
p1453
sg24
S'75'
p1454
sg26
V-13.5
p1455
sg28
S''
sg29
S'20151109'
p1456
sg31
V105
p1457
sg33
S'80'
p1458
sg35
V49
p1459
sg37
S'346'
p1460
sg39
V+13.5
p1461
sa(dp1462
g3
V\u74e6\u502b\u897f\u4e9e
p1463
sg5
V\u52de\u52d5\u8005\u9280\u884c
p1464
sg7
V1.75
p1465
sg9
V1.35
p1466
sg10
V1.75
p1467
sg12
V118
p1468
sg14
V91
p1469
sg16
V2.45
p1470
sg17
V1.75
p1471
sg19
V26
p1472
sg20
V1.75
p1473
sg22
V155.5
p1474
sg24
S'85'
p1475
sg26
V+4.5
p1476
sg28
V93
p1477
sg29
g1456
sg31
V208
p1478
sg33
S'78'
p1479
sg35
V67
p1480
sg37
S'347'
p1481
sg39
V-4.5
p1482
sa(dp1483
g3
V\u8c50\u62c9\u592b\u62c9\u9054
p1484
sg5
V\u8cfd\u7dad\u4e9e
p1485
sg7
V1.75
p1486
sg9
V1.25
p1487
sg10
V1.75
p1488
sg12
V92
p1489
sg14
V107
p1490
sg16
V2.85
p1491
sg17
V1.75
p1492
sg19
V11
p1493
sg20
V1.75
p1494
sg22
V150.5
p1495
sg24
S'79'
p1496
sg26
V+6.5
p1497
sg28
V90
p1498
sg29
S'20151108'
p1499
sg31
V175
p1500
sg33
S'81'
p1501
sg35
V64
p1502
sg37
S'339'
p1503
sg39
V-6.5
p1504
sa(dp1505
g3
V\u8499\u5df4\u65af
p1506
sg5
V\u8056\u585e\u5df4\u65af\u63d0\u5b89
p1507
sg7
V1.75
p1508
sg9
V
sg10
V1.75
p1509
sg12
V83
p1510
sg14
V83
p1511
sg16
V
sg17
V1.75
p1512
sg19
S''
sg20
V1.75
p1513
sg22
V145.5
p1514
sg24
S'81'
p1515
sg26
V+10.5
p1516
sg28
S''
sg29
g1499
sg31
V177
p1517
sg33
S'68'
p1518
sg35
V79
p1519
sg37
S'340'
p1520
sg39
V-10.5
p1521
sa(dp1522
g3
V\u5b89\u591a\u62c9
p1523
sg5
V\u5df4\u585e\u9686\u7d0d
p1524
sg7
V1.75
p1525
sg9
V
sg10
V1.75
p1526
sg12
V24
p1527
sg14
V76
p1528
sg16
V
sg17
V1.75
p1529
sg19
S''
sg20
V1.75
p1530
sg22
V153.5
p1531
sg24
S'66'
p1532
sg26
V-11.5
p1533
sg28
S''
sg29
g1499
sg31
V31
p1534
sg33
S'89'
p1535
sg35
V30
p1536
sg37
S'341'
p1537
sg39
V+11.5
p1538
sa(dp1539
g3
V\u7a46\u723e\u897f\u4e9e
p1540
sg5
V\u7562\u723e\u5305
p1541
sg7
V1.75
p1542
sg9
V1.6
p1543
sg10
V1.75
p1544
sg12
V28
p1545
sg14
V66
p1546
sg16
V1.9
p1547
sg17
V1.75
p1548
sg19
V30
p1549
sg20
V1.75
p1550
sg22
V151.5
p1551
sg24
S'96'
p1552
sg26
V+1.5
p1553
sg28
V17
p1554
sg29
g1499
sg31
V38
p1555
sg33
S'68'
p1556
sg35
V26
p1557
sg37
S'342'
p1558
sg39
V-1.5
p1559
sa(dp1560
g3
V\u70cf\u5c3c\u5361\u4e9e
p1561
sg5
V\u52a0\u90a3\u5229\u65af
p1562
sg7
V1.75
p1563
sg9
V
sg10
V1.75
p1564
sg12
V29
p1565
sg14
V31
p1566
sg16
V
sg17
V1.75
p1567
sg19
S''
sg20
V1.75
p1568
sg22
V153.5
p1569
sg24
S'85'
p1570
sg26
V+14.5
p1571
sg28
S''
sg29
g1499
sg31
V54
p1572
sg33
S'75'
p1573
sg35
V20
p1574
sg37
S'343'
p1575
sg39
V-14.5
p1576
sa(dp1577
g3
V\u5927\u52a0\u90a3\u5229
p1578
sg5
V\u66fc\u96f7\u85a9
p1579
sg7
V1.75
p1580
sg9
V
sg10
V1.75
p1581
sg12
V39
p1582
sg14
V53
p1583
sg16
V
sg17
V1.75
p1584
sg19
S''
sg20
V1.75
p1585
sg22
V150.5
p1586
sg24
S'88'
p1587
sg26
V+13.5
p1588
sg28
S''
sg29
g1499
sg31
V44
p1589
sg33
S'59'
p1590
sg35
V15
p1591
sg37
S'344'
p1592
sg39
V-13.5
p1593
sa(dp1594
g3
V\u5c24\u6587\u5716\u7279
p1595
sg5
V\u85a9\u62c9\u6208\u85a9
p1596
sg7
V1.75
p1597
sg9
V1.35
p1598
sg10
V1.75
p1599
sg12
V25
p1600
sg14
V48
p1601
sg16
V2.45
p1602
sg17
V1.75
p1603
sg19
V14
p1604
sg20
V1.75
p1605
sg22
V155.5
p1606
sg24
S'71'
p1607
sg26
V+4.5
p1608
sg28
V28
p1609
sg29
g1499
sg31
V64
p1610
sg33
S'70'
p1611
sg35
V22
p1612
sg37
S'345'
p1613
sg39
V-4.5
p1614
sa(dp1615
g3
V\u85a9\u62c9\u6208\u85a9
p1616
sg5
V\u7687\u5bb6\u99ac\u5fb7\u91cc
p1617
sg7
V1.75
p1618
sg9
V
sg10
V1.75
p1619
sg12
V82
p1620
sg14
V157
p1621
sg16
V
sg17
V1.75
p1622
sg19
S''
sg20
V1.75
p1623
sg22
V160.5
p1624
sg24
S'80'
p1625
sg26
V-11.5
p1626
sg28
S''
sg29
S'20151102'
p1627
sg31
V113
p1628
sg33
S'88'
p1629
sg35
V59
p1630
sg37
S'366'
p1631
sg39
V+11.5
p1632
sa(dp1633
g3
V\u66fc\u96f7\u85a9
p1634
sg5
V\u5c24\u6587\u5716\u7279
p1635
sg7
V1.75
p1636
sg9
V2.05
p1637
sg10
V1.75
p1638
sg12
V83
p1639
sg14
V174
p1640
sg16
V1.5
p1641
sg17
V1.75
p1642
sg19
V79
p1643
sg20
V1.75
p1644
sg22
V152.5
p1645
sg24
S'84'
p1646
sg26
V-2.5
p1647
sg28
V24
p1648
sg29
g1627
sg31
V107
p1649
sg33
S'85'
p1650
sg35
V52
p1651
sg37
S'367'
p1652
sg39
V+2.5
p1653
sa(dp1654
g3
V\u7562\u723e\u5305
p1655
sg5
V\u70cf\u5c3c\u5361\u4e9e
p1656
sg7
V1.75
p1657
sg9
V1.9
p1658
sg10
V1.75
p1659
sg12
V92
p1660
sg14
V178
p1661
sg16
V1.6
p1662
sg17
V1.75
p1663
sg19
V80
p1664
sg20
V1.75
p1665
sg22
V151.5
p1666
sg24
S'88'
p1667
sg26
V-1.5
p1668
sg28
V44
p1669
sg29
g1627
sg31
V120
p1670
sg33
S'70'
p1671
sg35
V68
p1672
sg37
S'368'
p1673
sg39
V+1.5
p1674
sa(dp1675
g3
V\u74e6\u502b\u897f\u4e9e
p1676
sg5
V\u8499\u5df4\u65af
p1677
sg7
V1.75
p1678
sg9
V
sg10
V1.75
p1679
sg12
V96
p1680
sg14
V102
p1681
sg16
V
sg17
V1.75
p1682
sg19
S''
sg20
V1.75
p1683
sg22
V151.5
p1684
sg24
S'76'
p1685
sg26
V+11.5
p1686
sg28
S''
sg29
S'20151101'
p1687
sg31
V194
p1688
sg33
S'56'
p1689
sg35
V117
p1690
sg37
S'360'
p1691
sg39
V-11.5
p1692
sa(dp1693
g3
V\u8cfd\u7dad\u4e9e
p1694
sg5
V\u7a46\u723e\u897f\u4e9e
p1695
sg7
V1.75
p1696
sg9
V2.15
p1697
sg10
V1.75
p1698
sg12
V26
p1699
sg14
V46
p1700
sg16
V1.45
p1701
sg17
V1.75
p1702
sg19
V24
p1703
sg20
V1.75
p1704
sg22
V146.5
p1705
sg24
S'85'
p1706
sg26
V-3.5
p1707
sg28
V20
p1708
sg29
g1687
sg31
V48
p1709
sg33
S'90'
p1710
sg35
V35
p1711
sg37
S'361'
p1712
sg39
V+3.5
p1713
sa(dp1714
g3
V\u8c50\u62c9\u592b\u62c9\u9054
p1715
sg5
V\u5b89\u591a\u62c9
p1716
sg7
V1.75
p1717
sg9
V1.45
p1718
sg10
V1.75
p1719
sg12
V31
p1720
sg14
V42
p1721
sg16
V2.15
p1722
sg17
V1.75
p1723
sg19
V13
p1724
sg20
V1.75
p1725
sg22
V150.5
p1726
sg24
S'78'
p1727
sg26
V+3.5
p1728
sg28
V37
p1729
sg29
g1687
sg31
V63
p1730
sg33
S'72'
p1731
sg35
V25
p1732
sg37
S'362'
p1733
sg39
V-3.5
p1734
sa(dp1735
g3
V\u52de\u52d5\u8005\u9280\u884c
p1736
sg5
V\u5927\u52a0\u90a3\u5229
p1737
sg7
V1.75
p1738
sg9
V1.2
p1739
sg10
V1.75
p1740
sg12
V41
p1741
sg14
V62
p1742
sg16
V3.1
p1743
sg17
V1.75
p1744
sg19
V10
p1745
sg20
V1.75
p1746
sg22
V157.5
p1747
sg24
S'77'
p1748
sg26
V+7.5
p1749
sg28
V38
p1750
sg29
g1687
sg31
V71
p1751
sg33
S'67'
p1752
sg35
V22
p1753
sg37
S'363'
p1754
sg39
V-7.5
p1755
sa(dp1756
g3
V\u5df4\u585e\u9686\u7d0d
p1757
sg5
V\u8056\u585e\u5df4\u65af\u63d0\u5b89
p1758
sg7
V1.75
p1759
sg9
V
sg10
V1.75
p1760
sg12
V29
p1761
sg14
V39
p1762
sg16
V
sg17
V1.75
p1763
sg19
S''
sg20
V1.75
p1764
sg22
V152.5
p1765
sg24
S'97'
p1766
sg26
V+19.5
p1767
sg28
S''
sg29
g1687
sg31
V67
p1768
sg33
S'61'
p1769
sg35
V29
p1770
sg37
S'364'
p1771
sg39
V-19.5
p1772
sa(dp1773
g3
V\u52a0\u90a3\u5229\u65af
p1774
sg5
V\u963f\u745f\u6cd5\u5b78\u751f
p1775
sg7
V1.75
p1776
sg9
V1.15
p1777
sg10
V1.75
p1778
sg12
V38
p1779
sg14
V38
p1780
sg16
V3.5
p1781
sg17
V1.75
p1782
sg19
V4
sg20
V1.75
p1783
sg22
V152.5
p1784
sg24
S'73'
p1785
sg26
V+8.5
p1786
sg28
V43
p1787
sg29
g1687
sg31
V64
p1788
sg33
S'75'
p1789
sg35
V18
p1790
sg37
S'365'
p1791
sg39
V-8.5
p1792
sa(dp1793
g3
V\u70cf\u5c3c\u5361\u4e9e
p1794
sg5
V\u52de\u52d5\u8005\u9280\u884c
p1795
sg7
V1.75
p1796
sg9
V1.2
p1797
sg10
V1.75
p1798
sg12
V107
p1799
sg14
V140
p1800
sg16
V3.1
p1801
sg17
V1.75
p1802
sg19
V18
p1803
sg20
V1.75
p1804
sg22
V155.5
p1805
sg24
S'66'
p1806
sg26
V+7.5
p1807
sg28
V75
p1808
sg29
S'20151026'
p1809
sg31
V130
p1810
sg33
S'74'
p1811
sg35
V51
p1812
sg37
S'388'
p1813
sg39
V-7.5
p1814
sa(dp1815
g3
V\u5b89\u591a\u62c9
p1816
sg5
V\u66fc\u96f7\u85a9
p1817
sg7
V1.75
p1818
sg9
V1.2
p1819
sg10
V1.75
p1820
sg12
V83
p1821
sg14
V109
p1822
sg16
V3.1
p1823
sg17
V1.75
p1824
sg19
V13
p1825
sg20
V1.75
p1826
sg22
V151.5
p1827
sg24
S'74'
p1828
sg26
V+7.5
p1829
sg28
V76
p1830
sg29
g1809
sg31
V135
p1831
sg33
S'77'
p1832
sg35
V58
p1833
sg37
S'389'
p1834
sg39
V-7.5
p1835
sa(dp1836
g3
V\u7687\u5bb6\u99ac\u5fb7\u91cc
p1837
sg5
V\u52a0\u90a3\u5229\u65af
p1838
sg7
V1.75
p1839
sg9
V
sg10
V1.75
p1840
sg12
V98
p1841
sg14
V149
p1842
sg16
V
sg17
V1.75
p1843
sg19
S''
sg20
V1.75
p1844
sg22
V167.5
p1845
sg24
S'112'
p1846
sg26
V+17.5
p1847
sg28
S''
sg29
g1809
sg31
V126
p1848
sg33
S'89'
p1849
sg35
V72
p1850
sg37
S'390'
p1851
sg39
V-17.5
p1852
sa(dp1853
g3
V\u8499\u5df4\u65af
p1854
sg5
V\u85a9\u62c9\u6208\u85a9
p1855
sg7
V1.75
p1856
sg9
V1.5
p1857
sg10
V1.75
p1858
sg12
V109
p1859
sg14
V117
p1860
sg16
V2.05
p1861
sg17
V1.75
p1862
sg19
V40
p1863
sg20
V1.75
p1864
sg22
V147.5
p1865
sg24
S'82'
p1866
sg26
V+2.5
p1867
sg28
V82
p1868
sg29
S'20151025'
p1869
sg31
V160
p1870
sg33
S'67'
p1871
sg35
V75
p1872
sg37
S'363'
p1873
sg39
V-2.5
p1874
sa(dp1875
g3
V\u5c24\u6587\u5716\u7279
p1876
sg5
V\u8c50\u62c9\u592b\u62c9\u9054
p1877
sg7
V1.75
p1878
sg9
V
sg10
V1.75
p1879
sg12
V37
p1880
sg14
V34
p1881
sg16
V
sg17
V1.75
p1882
sg19
S''
sg20
V1.75
p1883
sg22
V153.5
p1884
sg24
S'79'
p1885
sg26
V+11.5
p1886
sg28
S''
sg29
g1869
sg31
V56
p1887
sg33
S'66'
p1888
sg35
V27
p1889
sg37
S'383'
p1890
sg39
V-11.5
p1891
sa(dp1892
g3
V\u7a46\u723e\u897f\u4e9e
p1893
sg5
V\u5df4\u585e\u9686\u7d0d
p1894
sg7
V1.75
p1895
sg9
V2.85
p1896
sg10
V1.75
p1897
sg12
V42
p1898
sg14
V101
p1899
sg16
V1.25
p1900
sg17
V1.75
p1901
sg19
V62
p1902
sg20
V1.75
p1903
sg22
V148.5
p1904
sg24
S'74'
p1905
sg26
V-6.5
p1906
sg28
V2
sg29
g1869
sg31
V33
p1907
sg33
S'82'
p1908
sg35
V27
p1909
sg37
S'384'
p1910
sg39
V+6.5
p1911
sa(dp1912
g3
V\u963f\u745f\u6cd5\u5b78\u751f
p1913
sg5
V\u74e6\u502b\u897f\u4e9e
p1914
sg7
V1.75
p1915
sg9
V3.5
p1916
sg10
V1.75
p1917
sg12
V39
p1918
sg14
V74
p1919
sg16
V1.15
p1920
sg17
V1.75
p1921
sg19
V51
p1922
sg20
V1.75
p1923
sg22
V153.5
p1924
sg24
S'73'
p1925
sg26
V-8.5
p1926
sg28
V3
sg29
g1869
sg31
V41
p1927
sg33
S'81'
p1928
sg35
V23
p1929
sg37
S'385'
p1930
sg39
V+8.5
p1931
sa(dp1932
g3
V\u8056\u585e\u5df4\u65af\u63d0\u5b89
p1933
sg5
V\u7562\u723e\u5305
p1934
sg7
V1.75
p1935
sg9
V2.45
p1936
sg10
V1.75
p1937
sg12
V29
p1938
sg14
V82
p1939
sg16
V1.35
p1940
sg17
V1.75
p1941
sg19
V48
p1942
sg20
V1.75
p1943
sg22
V150.5
p1944
sg24
S'63'
p1945
sg26
V-4.5
p1946
sg28
V6
sg29
g1869
sg31
V30
p1947
sg33
S'75'
p1948
sg35
V32
p1949
sg37
S'386'
p1950
sg39
V+4.5
p1951
sa(dp1952
g3
V\u5927\u52a0\u90a3\u5229
p1953
sg5
V\u8cfd\u7dad\u4e9e
p1954
sg7
V1.75
p1955
sg9
V
sg10
V1.75
p1956
sg12
V36
p1957
sg14
V61
p1958
sg16
V
sg17
V1.75
p1959
sg19
S''
sg20
V1.75
p1960
sg22
V150.5
p1961
sg24
S'76'
p1962
sg26
V+15.5
p1963
sg28
S''
sg29
g1869
sg31
V49
p1964
sg33
S'67'
p1965
sg35
V22
p1966
sg37
S'387'
p1967
sg39
V-15.5
p1968
sa(dp1969
g3
V\u70cf\u5c3c\u5361\u4e9e
p1970
sg5
V\u8c50\u62c9\u592b\u62c9\u9054
p1971
sg7
V1.75
p1972
sg9
V
sg10
V1.75
p1973
sg12
V60
p1974
sg14
V119
p1975
sg16
V
sg17
V1.75
p1976
sg19
S''
sg20
V1.75
p1977
sg22
V149.5
p1978
sg24
S'81'
p1979
sg26
V+15.5
p1980
sg28
S''
sg29
S'20151019'
p1981
sg31
V84
p1982
sg33
S'59'
p1983
sg35
V45
p1984
sg37
S'371'
p1985
sg39
V-15.5
p1986
sa(dp1987
g3
V\u8cfd\u7dad\u4e9e
p1988
sg5
V\u5df4\u585e\u9686\u7d0d
p1989
sg7
V1.75
p1990
sg9
V
sg10
V1.75
p1991
sg12
V88
p1992
sg14
V116
p1993
sg16
V
sg17
V1.75
p1994
sg19
S''
sg20
V1.75
p1995
sg22
V151.5
p1996
sg24
S'58'
p1997
sg26
V-12.5
p1998
sg28
S''
sg29
g1981
sg31
V98
p1999
sg33
S'97'
p2000
sg35
V39
p2001
sg37
S'373'
p2002
sg39
V+12.5
p2003
sa(dp2004
g3
V\u66fc\u96f7\u85a9
p2005
sg5
V\u963f\u745f\u6cd5\u5b78\u751f
p2006
sg7
V1.75
p2007
sg9
V1.3
p2008
sg10
V1.75
p2009
sg12
V69
p2010
sg14
V103
p2011
sg16
V2.6
p2012
sg17
V1.75
p2013
sg19
V16
p2014
sg20
V1.75
p2015
sg22
V149.5
p2016
sg24
S'85'
p2017
sg26
V+5.5
p2018
sg28
V56
p2019
sg29
g1981
sg31
V115
p2020
sg33
S'67'
p2021
sg35
V52
p2022
sg37
S'376'
p2023
sg39
V-5.5
p2024
sa(dp2025
g3
V\u8056\u585e\u5df4\u65af\u63d0\u5b89
p2026
sg5
V\u7687\u5bb6\u99ac\u5fb7\u91cc
p2027
sg7
V1.75
p2028
sg9
V
sg10
V1.75
p2029
sg12
V66
p2030
sg14
V140
p2031
sg16
V
sg17
V1.75
p2032
sg19
S''
sg20
V1.75
p2033
sg22
V159.5
p2034
sg24
S'61'
p2035
sg26
V-13.5
p2036
sg28
S''
sg29
g1981
sg31
V107
p2037
sg33
S'94'
p2038
sg35
V64
p2039
sg37
S'375'
p2040
sg39
V+13.5
p2041
sa(dp2042
g3
V\u85a9\u62c9\u6208\u85a9
p2043
sg5
V\u7a46\u723e\u897f\u4e9e
p2044
sg7
V1.75
p2045
sg9
V1.3
p2046
sg10
V1.75
p2047
sg12
V42
p2048
sg14
V46
p2049
sg16
V2.6
p2050
sg17
V1.75
p2051
sg19
V8
sg20
V1.75
p2052
sg22
V148.5
p2053
sg24
S'84'
p2054
sg26
V+5.5
p2055
sg28
V63
p2056
sg29
S'20151018'
p2057
sg31
V125
p2058
sg33
S'64'
p2059
sg35
V49
p2060
sg37
S'374'
p2061
sg39
V-5.5
p2062
sa(dp2063
g3
V\u74e6\u502b\u897f\u4e9e
p2064
sg5
V\u5c24\u6587\u5716\u7279
p2065
sg7
V1.75
p2066
sg9
V
sg10
V1.75
p2067
sg12
V36
p2068
sg14
V58
p2069
sg16
V
sg17
V1.75
p2070
sg19
S''
sg20
V1.75
p2071
sg22
V160.5
p2072
sg24
S'76'
p2073
sg26
V+10.5
p2074
sg28
S''
sg29
g2057
sg31
V87
p2075
sg33
S'69'
p2076
sg35
V45
p2077
sg37
S'370'
p2078
sg39
V-10.5
p2079
sa(dp2080
g3
V\u7562\u723e\u5305
p2081
sg5
V\u5927\u52a0\u90a3\u5229
p2082
sg7
V1.75
p2083
sg9
V1.3
p2084
sg10
V1.75
p2085
sg12
V43
p2086
sg14
V71
p2087
sg16
V2.6
p2088
sg17
V1.75
p2089
sg19
V14
p2090
sg20
V1.75
p2091
sg22
V151.5
p2092
sg24
S'59'
p2093
sg26
V+5.5
p2094
sg28
V50
p2095
sg29
g2057
sg31
V94
p2096
sg33
S'85'
p2097
sg35
V33
p2098
sg37
S'372'
p2099
sg39
V-5.5
p2100
sa(dp2101
g3
V\u52de\u52d5\u8005\u9280\u884c
p2102
sg5
V\u8499\u5df4\u65af
p2103
sg7
V1.75
p2104
sg9
V
sg10
V1.75
p2105
sg12
V41
p2106
sg14
V62
p2107
sg16
V
sg17
V1.75
p2108
sg19
S''
sg20
V1.75
p2109
sg22
V155.5
p2110
sg24
S'82'
p2111
sg26
V+11.5
p2112
sg28
S''
sg29
g2057
sg31
V85
p2113
sg33
S'75'
p2114
sg35
V40
p2115
sg37
S'377'
p2116
sg39
V-11.5
p2117
sa(dp2118
g3
V\u52a0\u90a3\u5229\u65af
p2119
sg5
V\u5b89\u591a\u62c9
p2120
sg7
V1.75
p2121
sg9
V1.3
p2122
sg10
V1.75
p2123
sg12
V33
p2124
sg14
V56
p2125
sg16
V2.6
p2126
sg17
V1.75
p2127
sg19
V12
p2128
sg20
V1.75
p2129
sg22
V154.5
p2130
sg24
S'81'
p2131
sg26
V+5.5
p2132
sg28
V48
p2133
sg29
g2057
sg31
V89
p2134
sg33
S'83'
p2135
sg35
V42
p2136
sg37
S'378'
p2137
sg39
V-5.5
p2138
sa(dp2139
g3
V\u7687\u5bb6\u99ac\u5fb7\u91cc
p2140
sg5
V\u74e6\u502b\u897f\u4e9e
p2141
sg7
V1.75
p2142
sg9
V1.15
p2143
sg10
V1.75
p2144
sg12
V105
p2145
sg14
V104
p2146
sg16
V3.5
p2147
sg17
V1.75
p2148
sg19
V11
p2149
sg20
V1.75
p2150
sg22
V163.5
p2151
sg24
S'82'
p2152
sg26
V+8.5
p2153
sg28
V76
p2154
sg29
S'20151012'
p2155
sg31
V145
p2156
sg33
S'88'
p2157
sg35
V43
p2158
sg37
S'318'
p2159
sg39
V-8.5
p2160
sa(dp2161
g3
V\u5b89\u591a\u62c9
p2162
sg5
V\u7562\u723e\u5305
p2163
sg7
V1.85
p2164
sg9
V1.8
p2165
sg10
V1.75
p2166
sg12
V62
p2167
sg14
V142
p2168
sg16
V1.7
p2169
sg17
V1.65
p2170
sg19
V70
p2171
sg20
V1.75
p2172
sg22
V152.5
p2173
sg24
S'69'
p2174
sg26
V-1.5
p2175
sg28
V38
p2176
sg29
g2155
sg31
V119
p2177
sg33
S'79'
p2178
sg35
V59
p2179
sg37
S'323'
p2180
sg39
V+1.5
p2181
sa(dp2182
g3
V\u5df4\u585e\u9686\u7d0d
p2183
sg5
V\u85a9\u62c9\u6208\u85a9
p2184
sg7
V1.75
p2185
sg9
V
sg10
V1.75
p2186
sg12
V89
p2187
sg14
V96
p2188
sg16
V
sg17
V1.75
p2189
sg19
S''
sg20
V1.75
p2190
sg22
V152.5
p2191
sg24
S'84'
p2192
sg26
V+16.5
p2193
sg28
S''
sg29
g2155
sg31
V162
p2194
sg33
S'76'
p2195
sg35
V70
p2196
sg37
S'324'
p2197
sg39
V-16.5
p2198
sa(dp2199
g3
V\u5927\u52a0\u90a3\u5229
p2200
sg5
V\u8056\u585e\u5df4\u65af\u63d0\u5b89
p2201
sg7
V1.75
p2202
sg9
V
sg10
V1.75
p2203
sg12
V70
p2204
sg14
V92
p2205
sg16
V
sg17
V1.75
p2206
sg19
S''
sg20
V1.75
p2207
sg22
V146.5
p2208
sg24
S'97'
p2209
sg26
V+11.5
p2210
sg28
S''
sg29
S'20151011'
p2211
sg31
V112
p2212
sg33
S'64'
p2213
sg35
V57
p2214
sg37
S'320'
p2215
sg39
V-11.5
p2216
sa(dp2217
g3
V\u8c50\u62c9\u592b\u62c9\u9054
p2218
sg5
V\u66fc\u96f7\u85a9
p2219
sg7
V1.75
p2220
sg9
V1.3
p2221
sg10
V1.75
p2222
sg12
V90
p2223
sg14
V93
p2224
sg16
V2.6
p2225
sg17
V1.75
p2226
sg19
V11
p2227
sg20
V1.75
p2228
sg22
V150.5
p2229
sg24
S'78'
p2230
sg26
V+5.5
p2231
sg28
V69
p2232
sg29
g2211
sg31
V118
p2233
sg33
S'60'
p2234
sg35
V37
p2235
sg37
S'319'
p2236
sg39
V-5.5
p2237
sa(dp2238
g3
V\u5c24\u6587\u5716\u7279
p2239
sg5
V\u52a0\u90a3\u5229\u65af
p2240
sg7
V1.75
p2241
sg9
V1.25
p2242
sg10
V1.75
p2243
sg12
V90
p2244
sg14
V99
p2245
sg16
V2.85
p2246
sg17
V1.75
p2247
sg19
V11
p2248
sg20
V1.75
p2249
sg22
V159.5
p2250
sg24
S'83'
p2251
sg26
V+6.5
p2252
sg28
V83
p2253
sg29
g2211
sg31
V145
p2254
sg33
S'75'
p2255
sg35
V49
p2256
sg37
S'317'
p2257
sg39
V-6.5
p2258
sa(dp2259
g3
V\u7a46\u723e\u897f\u4e9e
p2260
sg5
V\u70cf\u5c3c\u5361\u4e9e
p2261
sg7
V1.75
p2262
sg9
V2.15
p2263
sg10
V1.75
p2264
sg12
V19
p2265
sg14
V59
p2266
sg16
V1.45
p2267
sg17
V1.75
p2268
sg19
V21
p2269
sg20
V1.75
p2270
sg22
V149.5
p2271
sg24
S'58'
p2272
sg26
V-3.5
p2273
sg28
V14
p2274
sg29
g2211
sg31
V38
p2275
sg33
S'60'
p2276
sg35
V20
p2277
sg37
S'312'
p2278
sg39
V+3.5
p2279
sa(dp2280
g3
V\u8499\u5df4\u65af
p2281
sg5
V\u8cfd\u7dad\u4e9e
p2282
sg7
V1.75
p2283
sg9
V1.35
p2284
sg10
V1.75
p2285
sg12
V18
p2286
sg14
V45
p2287
sg16
V2.45
p2288
sg17
V1.75
p2289
sg19
V10
p2290
sg20
V1.75
p2291
sg22
V148.5
p2292
sg24
S'88'
p2293
sg26
V+4.5
p2294
sg28
V23
p2295
sg29
g2211
sg31
V46
p2296
sg33
S'53'
p2297
sg35
V22
p2298
sg37
S'313'
p2299
sg39
V-4.5
p2300
sa(dp2301
g3
V\u963f\u745f\u6cd5\u5b78\u751f
p2302
sg5
V\u52de\u52d5\u8005\u9280\u884c
p2303
sg7
V1.75
p2304
sg9
V2.15
p2305
sg10
V1.75
p2306
sg12
V24
p2307
sg14
V52
p2308
sg16
V1.45
p2309
sg17
V1.75
p2310
sg19
V20
p2311
sg20
V1.75
p2312
sg22
V160.5
p2313
sg24
S'58'
p2314
sg26
V-3.5
p2315
sg28
V12
p2316
sg29
g2211
sg31
V44
p2317
sg33
S'85'
p2318
sg35
V17
p2319
sg37
S'321'
p2320
sg39
V+3.5
p2321
sa(dp2322
g3
V\u5df4\u585e\u9686\u7d0d
p2323
sg5
V\u7687\u5bb6\u99ac\u5fb7\u91cc
p2324
sg7
V1.75
p2325
sg9
V1.5
p2326
sg10
V1.75
p2327
sg12
V76
p2328
sg14
V90
p2329
sg16
V2.05
p2330
sg17
V1.75
p2331
sg19
V48
p2332
sg20
V1.75
p2333
sg22
V162.5
p2334
sg24
S'85'
p2335
sg26
V+2.5
p2336
sg28
V67
p2337
sg29
S'20150625'
p2338
sg31
V126
p2339
sg33
S'90'
p2340
sg35
V72
p2341
sg37
S'303'
p2342
sg39
V-2.5
p2343
sa(dp2344
g3
V\u7687\u5bb6\u99ac\u5fb7\u91cc
p2345
sg5
V\u5df4\u585e\u9686\u7d0d
p2346
sg7
V1.75
p2347
sg9
V1.25
p2348
sg10
V1.75
p2349
sg12
V60
p2350
sg14
V71
p2351
sg16
V2.85
p2352
sg17
V1.75
p2353
sg19
V15
p2354
sg20
V1.75
p2355
sg22
V161.5
p2356
sg24
S'100'
p2357
sg26
V+6.5
p2358
sg28
V53
p2359
sg29
S'20150621'
p2360
sg31
V86
p2361
sg33
S'80'
p2362
sg35
V56
p2363
sg37
S'310'
p2364
sg39
V-6.5
p2365
sa(dp2366
g3
V\u7687\u5bb6\u99ac\u5fb7\u91cc
p2367
sg5
V\u5df4\u585e\u9686\u7d0d
p2368
sg7
V1.75
p2369
sg9
V1.25
p2370
sg10
V1.75
p2371
sg12
V95
p2372
sg14
V85
p2373
sg16
V2.85
p2374
sg17
V1.75
p2375
sg19
V11
p2376
sg20
V1.75
p2377
sg22
V163.5
p2378
sg24
S'78'
p2379
sg26
V+6.5
p2380
sg28
V64
p2381
sg29
S'20150620'
p2382
sg31
V108
p2383
sg33
S'72'
p2384
sg35
V55
p2385
sg37
S'315'
p2386
sg39
V-6.5
p2387
sa(dp2388
g3
V\u5df4\u585e\u9686\u7d0d
p2389
sg5
V\u70cf\u5c3c\u5361\u4e9e
p2390
sg7
V1.75
p2391
sg9
V1.1
p2392
sg10
V1.75
p2393
sg12
V84
p2394
sg14
V77
p2395
sg16
V4
sg17
V1.75
p2396
sg19
V6
sg20
V1.75
p2397
sg22
V151.5
p2398
sg24
S'77'
p2399
sg26
V+9.5
p2400
sg28
V71
p2401
sg29
S'20150614'
p2402
sg31
V91
p2403
sg33
S'74'
p2404
sg35
V42
p2405
sg37
S'311'
p2406
sg39
V-9.5
p2407
sa(dp2408
g3
V\u70cf\u5c3c\u5361\u4e9e
p2409
sg5
V\u5df4\u585e\u9686\u7d0d
p2410
sg7
V1.75
p2411
sg9
V2.6
p2412
sg10
V1.75
p2413
sg12
V114
p2414
sg14
V153
p2415
sg16
V1.3
p2416
sg17
V1.75
p2417
sg19
V95
p2418
sg20
V1.75
p2419
sg22
V152.5
p2420
sg24
S'77'
p2421
sg26
V-5.5
p2422
sg28
V11
p2423
sg29
S'20150613'
p2424
sg31
V75
p2425
sg33
S'66'
p2426
sg35
V60
p2427
sg37
S'321'
p2428
sg39
V+5.5
p2429
sa(dp2430
g3
V\u74e6\u502b\u897f\u4e9e
p2431
sg5
V\u7687\u5bb6\u99ac\u5fb7\u91cc
p2432
sg7
V1.75
p2433
sg9
V2.85
p2434
sg10
V1.75
p2435
sg12
V90
p2436
sg14
V149
p2437
sg16
V1.25
p2438
sg17
V1.75
p2439
sg19
V92
p2440
sg20
V1.75
p2441
sg22
V167.5
p2442
sg24
S'84'
p2443
sg26
V-6.5
p2444
sg28
V19
p2445
sg29
S'20150612'
p2446
sg31
V93
p2447
sg33
S'90'
p2448
sg35
V78
p2449
sg37
S'312'
p2450
sg39
V+6.5
p2451
sa(dp2452
g3
V\u70cf\u5c3c\u5361\u4e9e
p2453
sg5
V\u5df4\u585e\u9686\u7d0d
p2454
sg7
V1.75
p2455
sg9
V2.85
p2456
sg10
V1.75
p2457
sg12
V104
p2458
sg14
V172
p2459
sg16
V1.25
p2460
sg17
V1.75
p2461
sg19
V98
p2462
sg20
V1.75
p2463
sg22
V152.5
p2464
sg24
S'89'
p2465
sg26
V-6.5
p2466
sg28
V18
p2467
sg29
S'20150611'
p2468
sg31
V74
p2469
sg33
S'84'
p2470
sg35
V74
p2471
sg37
S'311'
p2472
sg39
V+6.5
p2473
sa(dp2474
g3
V\u74e6\u502b\u897f\u4e9e
p2475
sg5
V\u7687\u5bb6\u99ac\u5fb7\u91cc
p2476
sg7
V1.75
p2477
sg9
V2.85
p2478
sg10
V1.75
p2479
sg12
V83
p2480
sg14
V149
p2481
sg16
V1.25
p2482
sg17
V1.75
p2483
sg19
V83
p2484
sg20
V1.75
p2485
sg22
V165.5
p2486
sg24
S'100'
p2487
sg26
V-6.5
p2488
sg28
V17
p2489
sg29
S'20150610'
p2490
sg31
V87
p2491
sg33
S'103'
p2492
sg35
V88
p2493
sg37
S'307'
p2494
sg39
V+6.5
p2495
sa(dp2496
g3
V\u7687\u5bb6\u99ac\u5fb7\u91cc
p2497
sg5
V\u74e6\u502b\u897f\u4e9e
p2498
sg7
V1.75
p2499
sg9
V
sg10
V1.75
p2500
sg12
V75
p2501
sg14
V89
p2502
sg16
V
sg17
V1.75
p2503
sg19
S''
sg20
V1.75
p2504
sg22
V162.5
p2505
sg24
S'89'
p2506
sg26
V+12.5
p2507
sg28
S''
sg29
S'20150607'
p2508
sg31
V94
p2509
sg33
S'93'
p2510
sg35
V50
p2511
sg37
S'322'
p2512
sg39
V-12.5
p2513
sa(dp2514
g3
V\u5df4\u585e\u9686\u7d0d
p2515
sg5
V\u70cf\u5c3c\u5361\u4e9e
p2516
sg7
V1.75
p2517
sg9
V
sg10
V1.75
p2518
sg12
V75
p2519
sg14
V74
p2520
sg16
V
sg17
V1.75
p2521
sg19
S''
sg20
V1.75
p2522
sg22
V152.5
p2523
sg24
S'91'
p2524
sg26
V+11.5
p2525
sg28
S''
sg29
g2508
sg31
V103
p2526
sg33
S'70'
p2527
sg35
V50
p2528
sg37
S'327'
p2529
sg39
V-11.5
p2530
sa(dp2531
g3
V\u5df4\u585e\u9686\u7d0d
p2532
sg5
V\u70cf\u5c3c\u5361\u4e9e
p2533
sg7
V1.75
p2534
sg9
V1.15
p2535
sg10
V1.75
p2536
sg12
V95
p2537
sg14
V81
p2538
sg16
V3.5
p2539
sg17
V1.75
p2540
sg19
V6
sg20
V1.75
p2541
sg22
V153.5
p2542
sg24
S'91'
p2543
sg26
V+8.5
p2544
sg28
V89
p2545
sg29
S'20150606'
p2546
sg31
V154
p2547
sg33
S'60'
p2548
sg35
V60
p2549
sg37
S'308'
p2550
sg39
V-8.5
p2551
sa(dp2552
g3
V\u7687\u5bb6\u99ac\u5fb7\u91cc
p2553
sg5
V\u74e6\u502b\u897f\u4e9e
p2554
sg7
V1.75
p2555
sg9
V
sg10
V1.75
p2556
sg12
V93
p2557
sg14
V107
p2558
sg16
V
sg17
V1.75
p2559
sg19
S''
sg20
V1.75
p2560
sg22
V164.5
p2561
sg24
S'81'
p2562
sg26
V+11.5
p2563
sg28
S''
sg29
S'20150605'
p2564
sg31
V118
p2565
sg33
S'71'
p2566
sg35
V74
p2567
sg37
S'306'
p2568
sg39
V-11.5
p2569
sa(dp2570
g3
V\u7562\u723e\u5305
p2571
sg5
V\u74e6\u502b\u897f\u4e9e
p2572
sg7
V1.65
p2573
sg9
V1.7
p2574
sg10
V1.75
p2575
sg12
V64
p2576
sg14
V126
p2577
sg16
V1.8
p2578
sg17
V1.85
p2579
sg19
V51
p2580
sg20
V1.75
p2581
sg22
V160.5
p2582
sg24
S'70'
p2583
sg26
V+1.5
p2584
sg28
V53
p2585
sg29
S'20150602'
p2586
sg31
V110
p2587
sg33
S'71'
p2588
sg35
V71
p2589
sg37
S'313'
p2590
sg39
V-1.5
p2591
sa(dp2592
g3
V\u70cf\u5c3c\u5361\u4e9e
p2593
sg5
V\u52de\u52d5\u8005\u9280\u884c
p2594
sg7
V1.75
p2595
sg9
V1.3
p2596
sg10
V1.75
p2597
sg12
V75
p2598
sg14
V92
p2599
sg16
V2.6
p2600
sg17
V1.75
p2601
sg19
V13
p2602
sg20
V1.75
p2603
sg22
V156.5
p2604
sg24
S'89'
p2605
sg26
V+5.5
p2606
sg28
V74
p2607
sg29
g2586
sg31
V151
p2608
sg33
S'77'
p2609
sg35
V66
p2610
sg37
S'312'
p2611
sg39
V-5.5
p2612
sa(dp2613
g3
V\u74e6\u502b\u897f\u4e9e
p2614
sg5
V\u7562\u723e\u5305
p2615
sg7
V1.75
p2616
sg9
V1.15
p2617
sg10
V1.75
p2618
sg12
V49
p2619
sg14
V58
p2620
sg16
V3.5
p2621
sg17
V1.75
p2622
sg19
V8
sg20
V1.75
p2623
sg22
V160.5
p2624
sg24
S'76'
p2625
sg26
V+8.5
p2626
sg28
V56
p2627
sg29
S'20150531'
p2628
sg31
V81
p2629
sg33
S'80'
p2630
sg35
V36
p2631
sg37
S'319'
p2632
sg39
V-8.5
p2633
sa(dp2634
g3
V\u5c24\u6587\u5716\u7279
p2635
sg5
V\u5df4\u585e\u9686\u7d0d
p2636
sg7
V1.75
p2637
sg9
V3.1
p2638
sg10
V1.75
p2639
sg12
V62
p2640
sg14
V114
p2641
sg16
V1.2
p2642
sg17
V1.75
p2643
sg19
V61
p2644
sg20
V1.75
p2645
sg22
V151.5
p2646
sg24
S'74'
p2647
sg26
V-7.5
p2648
sg28
V10
p2649
sg29
g2628
sg31
V48
p2650
sg33
S'80'
p2651
sg35
V28
p2652
sg37
S'323'
p2653
sg39
V+7.5
p2654
sa(dp2655
g3
V\u52de\u52d5\u8005\u9280\u884c
p2656
sg5
V\u70cf\u5c3c\u5361\u4e9e
p2657
sg7
V1.75
p2658
sg9
V1.35
p2659
sg10
V1.75
p2660
sg12
V56
p2661
sg14
V61
p2662
sg16
V2.45
p2663
sg17
V1.75
p2664
sg19
V14
p2665
sg20
V1.75
p2666
sg22
V158.5
p2667
sg24
S'92'
p2668
sg26
V+4.5
p2669
sg28
V59
p2670
sg29
g2628
sg31
V97
p2671
sg33
S'82'
p2672
sg35
V43
p2673
sg37
S'306'
p2674
sg39
V-4.5
p2675
sa(dp2676
g3
V\u5927\u52a0\u90a3\u5229
p2677
sg5
V\u7687\u5bb6\u99ac\u5fb7\u91cc
p2678
sg7
V1.75
p2679
sg9
V3.75
p2680
sg10
V1.75
p2681
sg12
V28
p2682
sg14
V37
p2683
sg16
V1.12
p2684
sg17
V1.75
p2685
sg19
V2
sg20
V1.75
p2686
sg22
V161.5
p2687
sg24
S'86'
p2688
sg26
V-9.5
p2689
sg28
V0
sg29
g2628
sg31
V40
p2690
sg33
S'93'
p2691
sg35
V15
p2692
sg37
S'309'
p2693
sg39
V+9.5
p2694
sa(dp2695
g3
V\u7687\u5bb6\u99ac\u5fb7\u91cc
p2696
sg5
V\u5927\u52a0\u90a3\u5229
p2697
sg7
V1.75
p2698
sg9
V
sg10
V1.75
p2699
sg12
V75
p2700
sg14
V88
p2701
sg16
V
sg17
V1.75
p2702
sg19
S''
sg20
V1.75
p2703
sg22
V160.5
p2704
sg24
S'101'
p2705
sg26
V+15.5
p2706
sg28
S''
sg29
S'20150530'
p2707
sg31
V107
p2708
sg33
S'74'
p2709
sg35
V72
p2710
sg37
S'320'
p2711
sg39
V-15.5
p2712
sa(dp2713
g3
V\u7562\u723e\u5305
p2714
sg5
V\u74e6\u502b\u897f\u4e9e
p2715
sg7
V1.75
p2716
sg9
V1.9
p2717
sg10
V1.75
p2718
sg12
V52
p2719
sg14
V81
p2720
sg16
V1.6
p2721
sg17
V1.75
p2722
sg19
V44
p2723
sg20
V1.75
p2724
sg22
V158.5
p2725
sg24
S'75'
p2726
sg26
V-1.5
p2727
sg28
V26
p2728
sg29
S'20150529'
p2729
sg31
V55
p2730
sg33
S'91'
p2731
sg35
V28
p2732
sg37
S'316'
p2733
sg39
V+1.5
p2734
sa(dp2735
g3
V\u70cf\u5c3c\u5361\u4e9e
p2736
sg5
V\u52de\u52d5\u8005\u9280\u884c
p2737
sg7
V1.75
p2738
sg9
V1.25
p2739
sg10
V1.75
p2740
sg12
V50
p2741
sg14
V68
p2742
sg16
V2.85
p2743
sg17
V1.75
p2744
sg19
V11
p2745
sg20
V1.75
p2746
sg22
V161.5
p2747
sg24
S'69'
p2748
sg26
V+6.5
p2749
sg28
V47
p2750
sg29
g2729
sg31
V63
p2751
sg33
S'55'
p2752
sg35
V22
p2753
sg37
S'321'
p2754
sg39
V-6.5
p2755
sa(dp2756
g3
V\u5df4\u585e\u9686\u7d0d
p2757
sg5
V\u5c24\u6587\u5716\u7279
p2758
sg7
V1.75
p2759
sg9
V
sg10
V1.75
p2760
sg12
V42
p2761
sg14
V79
p2762
sg16
V
sg17
V1.75
p2763
sg19
S''
sg20
V1.75
p2764
sg22
V155.5
p2765
sg24
S'77'
p2766
sg26
V+15.5
p2767
sg28
S''
sg29
g2729
sg31
V59
p2768
sg33
S'55'
p2769
sg35
V37
p2770
sg37
S'317'
p2771
sg39
V-15.5
p2772
sa(dp2773
g3
V\u8cfd\u7dad\u4e9e
p2774
sg5
V\u5c24\u6587\u5716\u7279
p2775
sg7
V1.75
p2776
sg9
V
sg10
V1.75
p2777
sg12
V46
p2778
sg14
V69
p2779
sg16
V
sg17
V1.75
p2780
sg19
S''
sg20
V1.75
p2781
sg22
V157.5
p2782
sg24
S'77'
p2783
sg26
V-4.5
p2784
sg28
S''
sg29
S'20150525'
p2785
sg31
V48
p2786
sg33
S'70'
p2787
sg35
V22
p2788
sg37
S'326'
p2789
sg39
V+4.5
p2790
sa(dp2791
g3
V\u7687\u5bb6\u99ac\u5fb7\u91cc
p2792
sg5
V\u66fc\u96f7\u85a9
p2793
sg7
V1.75
p2794
sg9
V
sg10
V1.75
p2795
sg12
V52
p2796
sg14
V41
p2797
sg16
V
sg17
V1.75
p2798
sg19
S''
sg20
V1.75
p2799
sg22
V163.5
p2800
sg24
S'80'
p2801
sg26
V+15.5
p2802
sg28
S''
sg29
g2785
sg31
V87
p2803
sg33
S'90'
p2804
sg35
V30
p2805
sg37
S'327'
p2806
sg39
V-15.5
p2807
sa(dp2808
g3
V\u5df4\u585e\u9686\u7d0d
p2809
sg5
V\u5b89\u591a\u62c9
p2810
sg7
V1.75
p2811
sg9
V
sg10
V1.75
p2812
sg12
V40
p2813
sg14
V39
p2814
sg16
V
sg17
V1.75
p2815
sg19
S''
sg20
V1.75
p2816
sg22
V159.5
p2817
sg24
S'84'
p2818
sg26
V+14.5
p2819
sg28
S''
sg29
g2785
sg31
V75
p2820
sg33
S'74'
p2821
sg35
V24
p2822
sg37
S'328'
p2823
sg39
V-14.5
p2824
sa(dp2825
g3
V\u85a9\u62c9\u6208\u85a9
p2826
sg5
V\u8056\u585e\u5df4\u65af\u63d0\u5b89
p2827
sg7
V1.75
p2828
sg9
V
sg10
V1.75
p2829
sg12
V30
p2830
sg14
V36
p2831
sg16
V
sg17
V1.75
p2832
sg19
S''
sg20
V1.75
p2833
sg22
V149.5
p2834
sg24
S'72'
p2835
sg26
V+6.5
p2836
sg28
S''
sg29
g2785
sg31
V65
p2837
sg33
S'65'
p2838
sg35
V32
p2839
sg37
S'329'
p2840
sg39
V-6.5
p2841
sa(dp2842
g3
V\u7562\u723e\u5305
p2843
sg5
V\u70cf\u5c3c\u5361\u4e9e
p2844
sg7
V1.75
p2845
sg9
V
sg10
V1.75
p2846
sg12
V47
p2847
sg14
V48
p2848
sg16
V
sg17
V1.75
p2849
sg19
S''
sg20
V1.75
p2850
sg22
V158.5
p2851
sg24
S'93'
p2852
sg26
V+3.5
p2853
sg28
S''
sg29
g2785
sg31
V79
p2854
sg33
S'94'
p2855
sg35
V24
p2856
sg37
S'330'
p2857
sg39
V-3.5
p2858
sa(dp2859
g3
V\u8499\u5df4\u65af
p2860
sg5
V\u52de\u52d5\u8005\u9280\u884c
p2861
sg7
V1.75
p2862
sg9
V
sg10
V1.75
p2863
sg12
V42
p2864
sg14
V71
p2865
sg16
V
sg17
V1.75
p2866
sg19
S''
sg20
V1.75
p2867
sg22
V157.5
p2868
sg24
S'74'
p2869
sg26
V-6.5
p2870
sg28
S''
sg29
g2785
sg31
V57
p2871
sg33
S'81'
p2872
sg35
V24
p2873
sg37
S'331'
p2874
sg39
V+6.5
p2875
sa(dp2876
g3
V\u8c50\u62c9\u592b\u62c9\u9054
p2877
sg5
V\u74e6\u502b\u897f\u4e9e
p2878
sg7
V1.75
p2879
sg9
V
sg10
V1.75
p2880
sg12
V39
p2881
sg14
V79
p2882
sg16
V
sg17
V1.75
p2883
sg19
S''
sg20
V1.75
p2884
sg22
V161.5
p2885
sg24
S'64'
p2886
sg26
V-6.5
p2887
sg28
S''
sg29
g2785
sg31
V35
p2888
sg33
S'87'
p2889
sg35
V24
p2890
sg37
S'332'
p2891
sg39
V+6.5
p2892
sa(dp2893
g3
V\u963f\u745f\u6cd5\u5b78\u751f
p2894
sg5
V\u5927\u52a0\u90a3\u5229
p2895
sg7
V1.75
p2896
sg9
V
sg10
V1.75
p2897
sg12
V42
p2898
sg14
V67
p2899
sg16
V
sg17
V1.75
p2900
sg19
S''
sg20
V1.75
p2901
sg22
V154.5
p2902
sg24
S'84'
p2903
sg26
V-5.5
p2904
sg28
S''
sg29
S'20150524'
p2905
sg31
V49
p2906
sg33
S'75'
p2907
sg35
V39
p2908
sg37
S'324'
p2909
sg39
V+5.5
p2910
sa(dp2911
g3
V\u7a46\u723e\u897f\u4e9e
p2912
sg5
V\u52a0\u90a3\u5229\u65af
p2913
sg7
V1.75
p2914
sg9
V
sg10
V1.75
p2915
sg12
V45
p2916
sg14
V50
p2917
sg16
V
sg17
V1.75
p2918
sg19
S''
sg20
V1.75
p2919
sg22
V161.5
p2920
sg24
S'104'
p2921
sg26
V+5.5
p2922
sg28
S''
sg29
g2905
sg31
V71
p2923
sg33
S'81'
p2924
sg35
V34
p2925
sg37
S'325'
p2926
sg39
V-5.5
p2927
sa(dp2928
g3
V\u52de\u52d5\u8005\u9280\u884c
p2929
sg5
V\u7687\u5bb6\u99ac\u5fb7\u91cc
p2930
sg7
V1.75
p2931
sg9
V
sg10
V1.75
p2932
sg12
V88
p2933
sg14
V111
p2934
sg16
V
sg17
V1.75
p2935
sg19
S''
sg20
V1.75
p2936
sg22
V167.5
p2937
sg24
S'94'
p2938
sg26
V+1.5
p2939
sg28
S''
sg29
S'20150521'
p2940
sg31
V95
p2941
sg33
S'81'
p2942
sg35
V58
p2943
sg37
S'310'
p2944
sg39
V-1.5
p2945
sa(dp2946
g3
V\u66fc\u96f7\u85a9
p2947
sg5
V\u963f\u745f\u6cd5\u5b78\u751f
p2948
sg7
V1.75
p2949
sg9
V
sg10
V1.75
p2950
sg12
V73
p2951
sg14
V72
p2952
sg16
V
sg17
V1.75
p2953
sg19
S''
sg20
V1.75
p2954
sg22
V150.5
p2955
sg24
S'81'
p2956
sg26
V+6.5
p2957
sg28
S''
sg29
S'20150518'
p2958
sg31
V119
p2959
sg33
S'75'
p2960
sg35
V54
p2961
sg37
S'313'
p2962
sg39
V-6.5
p2963
sa(dp2964
g3
V\u74e6\u502b\u897f\u4e9e
p2965
sg5
V\u7562\u723e\u5305
p2966
sg7
V1.75
p2967
sg9
V
sg10
V1.75
p2968
sg12
V59
p2969
sg14
V61
p2970
sg16
V
sg17
V1.75
p2971
sg19
S''
sg20
V1.75
p2972
sg22
V164.5
p2973
sg24
S'73'
p2974
sg26
V+8.5
p2975
sg28
S''
sg29
S'20150517'
p2976
sg31
V89
p2977
sg33
S'78'
p2978
sg35
V48
p2979
sg37
S'301'
p2980
sg39
V-8.5
p2981
sa(dp2982
g3
V\u5b89\u591a\u62c9
p2983
sg5
V\u8499\u5df4\u65af
p2984
sg7
V1.75
p2985
sg9
V
sg10
V1.75
p2986
sg12
V76
p2987
sg14
V83
p2988
sg16
V
sg17
V1.75
p2989
sg19
S''
sg20
V1.75
p2990
sg22
V152.5
p2991
sg24
S'65'
p2992
sg26
V+8.5
p2993
sg28
S''
sg29
g2976
sg31
V88
p2994
sg33
S'74'
p2995
sg35
V51
p2996
sg37
S'302'
p2997
sg39
V-8.5
p2998
sa(dp2999
g3
V\u5927\u52a0\u90a3\u5229
p3000
sg5
V\u85a9\u62c9\u6208\u85a9
p3001
sg7
V1.75
p3002
sg9
V
sg10
V1.75
p3003
sg12
V19
p3004
sg14
V25
p3005
sg16
V
sg17
V1.75
p3006
sg19
S''
sg20
V1.75
p3007
sg22
V154.5
p3008
sg24
S'85'
p3009
sg26
V+6.5
p3010
sg28
S''
sg29
g2976
sg31
V49
p3011
sg33
S'67'
p3012
sg35
V24
p3013
sg37
S'308'
p3014
sg39
V-6.5
p3015
sa(dp3016
g3
V\u8056\u585e\u5df4\u65af\u63d0\u5b89
p3017
sg5
V\u8cfd\u7dad\u4e9e
p3018
sg7
V1.75
p3019
sg9
V
sg10
V1.75
p3020
sg12
V21
p3021
sg14
V38
p3022
sg16
V
sg17
V1.75
p3023
sg19
S''
sg20
V1.75
p3024
sg22
V150.5
p3025
sg24
S'67'
p3026
sg26
V+3.5
p3027
sg28
S''
sg29
g2976
sg31
V29
p3028
sg33
S'69'
p3029
sg35
V21
p3030
sg37
S'309'
p3031
sg39
V-3.5
p3032
sa(dp3033
g3
V\u5c24\u6587\u5716\u7279
p3034
sg5
V\u7a46\u723e\u897f\u4e9e
p3035
sg7
V1.75
p3036
sg9
V
sg10
V1.75
p3037
sg12
V24
p3038
sg14
V32
p3039
sg16
V
sg17
V1.75
p3040
sg19
S''
sg20
V1.75
p3041
sg22
V159.5
p3042
sg24
S'77'
p3043
sg26
V+7.5
p3044
sg28
S''
sg29
g2976
sg31
V48
p3045
sg33
S'54'
p3046
sg35
V15
p3047
sg37
S'310'
p3048
sg39
V-7.5
p3049
sa(dp3050
g3
V\u70cf\u5c3c\u5361\u4e9e
p3051
sg5
V\u5df4\u585e\u9686\u7d0d
p3052
sg7
V1.75
p3053
sg9
V
sg10
V1.75
p3054
sg12
V32
p3055
sg14
V48
p3056
sg16
V
sg17
V1.75
p3057
sg19
S''
sg20
V1.75
p3058
sg22
V156.5
p3059
sg24
S'61'
p3060
sg26
V-5.5
p3061
sg28
S''
sg29
g2976
sg31
V31
p3062
sg33
S'74'
p3063
sg35
V18
p3064
sg37
S'311'
p3065
sg39
V+5.5
p3066
sa(dp3067
g3
V\u52a0\u90a3\u5229\u65af
p3068
sg5
V\u8c50\u62c9\u592b\u62c9\u9054
p3069
sg7
V1.75
p3070
sg9
V
sg10
V1.75
p3071
sg12
V19
p3072
sg14
V27
p3073
sg16
V
sg17
V1.75
p3074
sg19
S''
sg20
V1.75
p3075
sg22
V154.5
p3076
sg24
S'99'
p3077
sg26
V+5.5
p3078
sg28
S''
sg29
g2976
sg31
V39
p3079
sg33
S'74'
p3080
sg35
V15
p3081
sg37
S'312'
p3082
sg39
V-5.5
p3083
sa(dp3084
g3
V\u52a0\u90a3\u5229\u65af
p3085
sg5
V\u74e6\u502b\u897f\u4e9e
p3086
sg7
V1.75
p3087
sg9
V
sg10
V1.75
p3088
sg12
V64
p3089
sg14
V117
p3090
sg16
V
sg17
V1.75
p3091
sg19
S''
sg20
V1.75
p3092
sg22
V163.5
p3093
sg24
S'74'
p3094
sg26
V-4.5
p3095
sg28
S''
sg29
S'20150511'
p3096
sg31
V68
p3097
sg33
S'81'
p3098
sg35
V44
p3099
sg37
S'348'
p3100
sg39
V+4.5
p3101
sa(dp3102
g3
V\u963f\u745f\u6cd5\u5b78\u751f
p3103
sg5
V\u52de\u52d5\u8005\u9280\u884c
p3104
sg7
V1.75
p3105
sg9
V
sg10
V1.75
p3106
sg12
V92
p3107
sg14
V153
p3108
sg16
V
sg17
V1.75
p3109
sg19
S''
sg20
V1.75
p3110
sg22
V159.5
p3111
sg24
S'86'
p3112
sg26
V-4.5
p3113
sg28
S''
sg29
g3096
sg31
V66
p3114
sg33
S'76'
p3115
sg35
V48
p3116
sg37
S'349'
p3117
sg39
V+4.5
p3118
sa(dp3119
g3
V\u8c50\u62c9\u592b\u62c9\u9054
p3120
sg5
V\u5c24\u6587\u5716\u7279
p3121
sg7
V1.75
p3122
sg9
V
sg10
V1.75
p3123
sg12
V70
p3124
sg14
V112
p3125
sg16
V
sg17
V1.75
p3126
sg19
S''
sg20
V1.75
p3127
sg22
V156.5
p3128
sg24
S'73'
p3129
sg26
V-4.5
p3130
sg28
S''
sg29
S'20150510'
p3131
sg31
V73
p3132
sg33
S'77'
p3133
sg35
V40
p3134
sg37
S'333'
p3135
sg39
V+4.5
p3136
sa(dp3137
g3
V\u5df4\u585e\u9686\u7d0d
p3138
sg5
V\u7562\u723e\u5305
p3139
sg7
V1.75
p3140
sg9
V
sg10
V1.75
p3141
sg12
V77
p3142
sg14
V72
p3143
sg16
V
sg17
V1.75
p3144
sg19
S''
sg20
V1.75
p3145
sg22
V154.5
p3146
sg24
S'80'
p3147
sg26
V+14.5
p3148
sg28
S''
sg29
g3131
sg31
V103
p3149
sg33
S'73'
p3150
sg35
V44
p3151
sg37
S'340'
p3152
sg39
V-14.5
p3153
sa(dp3154
g3
V\u8499\u5df4\u65af
p3155
sg5
V\u70cf\u5c3c\u5361\u4e9e
p3156
sg7
V1.75
p3157
sg9
V
sg10
V1.75
p3158
sg12
V17
p3159
sg14
V26
p3160
sg16
V
sg17
V1.75
p3161
sg19
S''
sg20
V1.75
p3162
sg22
V150.5
p3163
sg24
S'78'
p3164
sg26
V-6.5
p3165
sg28
S''
sg29
g3131
sg31
V28
p3166
sg33
S'66'
p3167
sg35
V17
p3168
sg37
S'341'
p3169
sg39
V+6.5
p3170
sa(dp3171
g3
V\u85a9\u62c9\u6208\u85a9
p3172
sg5
V\u66fc\u96f7\u85a9
p3173
sg7
V1.75
p3174
sg9
V
sg10
V1.75
p3175
sg12
V15
p3176
sg14
V23
p3177
sg16
V
sg17
V1.75
p3178
sg19
S''
sg20
V1.75
p3179
sg22
V154.5
p3180
sg24
S'82'
p3181
sg26
V+11.5
p3182
sg28
S''
sg29
g3131
sg31
V28
p3183
sg33
S'77'
p3184
sg35
V16
p3185
sg37
S'342'
p3186
sg39
V-11.5
p3187
sa(dp3188
g3
V\u7687\u5bb6\u99ac\u5fb7\u91cc
p3189
sg5
V\u5b89\u591a\u62c9
p3190
sg7
V1.75
p3191
sg9
V
sg10
V1.75
p3192
sg12
V30
p3193
sg14
V33
p3194
sg16
V
sg17
V1.75
p3195
sg19
S''
sg20
V1.75
p3196
sg22
V162.5
p3197
sg24
S'84'
p3198
sg26
V+17.5
p3199
sg28
S''
sg29
g3131
sg31
V29
p3200
sg33
S'83'
p3201
sg35
V15
p3202
sg37
S'345'
p3203
sg39
V-17.5
p3204
sa(dp3205
g3
V\u7a46\u723e\u897f\u4e9e
p3206
sg5
V\u8056\u585e\u5df4\u65af\u63d0\u5b89
p3207
sg7
V1.75
p3208
sg9
V
sg10
V1.75
p3209
sg12
V18
p3210
sg14
V18
p3211
sg16
V
sg17
V1.75
p3212
sg19
S''
sg20
V1.75
p3213
sg22
V148.5
p3214
sg24
S'99'
p3215
sg26
V+7.5
p3216
sg28
S''
sg29
g3131
sg31
V31
p3217
sg33
S'68'
p3218
sg35
V14
p3219
sg37
S'346'
p3220
sg39
V-7.5
p3221
sa(dp3222
g3
V\u8cfd\u7dad\u4e9e
p3223
sg5
V\u5927\u52a0\u90a3\u5229
p3224
sg7
V1.65
p3225
sg9
V
sg10
V1.75
p3226
sg12
V18
p3227
sg14
V30
p3228
sg16
V
sg17
V1.85
p3229
sg19
S''
sg20
V1.75
p3230
sg22
V152.5
p3231
sg24
S'75'
p3232
sg26
V+1.5
p3233
sg28
S''
sg29
g3131
sg31
V40
p3234
sg33
S'83'
p3235
sg35
V15
p3236
sg37
S'347'
p3237
sg39
V-1.5
p3238
sa(dp3239
g3
V\u52a0\u90a3\u5229\u65af
p3240
sg5
V\u5927\u52a0\u90a3\u5229
p3241
sg7
V1.75
p3242
sg9
V
sg10
V1.75
p3243
sg12
V96
p3244
sg14
V117
p3245
sg16
V
sg17
V1.75
p3246
sg19
S''
sg20
V1.75
p3247
sg22
V153.5
p3248
sg24
S'71'
p3249
sg26
V+2.5
p3250
sg28
S''
sg29
S'20150508'
p3251
sg31
V132
p3252
sg33
S'68'
p3253
sg35
V74
p3254
sg37
S'339'
p3255
sg39
V-2.5
p3256
sa(dp3257
g3
V\u52de\u52d5\u8005\u9280\u884c
p3258
sg5
V\u7a46\u723e\u897f\u4e9e
p3259
sg7
V1.75
p3260
sg9
V
sg10
V1.75
p3261
sg12
V84
p3262
sg14
V101
p3263
sg16
V
sg17
V1.75
p3264
sg19
S''
sg20
V1.75
p3265
sg22
V161.5
p3266
sg24
S'77'
p3267
sg26
V+15.5
p3268
sg28
S''
sg29
S'20150504'
p3269
sg31
V99
p3270
sg33
S'85'
p3271
sg35
V70
p3272
sg37
S'341'
p3273
sg39
V-15.5
p3274
sa(dp3275
g3
V\u5b89\u591a\u62c9
p3276
sg5
V\u8cfd\u7dad\u4e9e
p3277
sg7
V1.75
p3278
sg9
V
sg10
V1.75
p3279
sg12
V77
p3280
sg14
V79
p3281
sg16
V
sg17
V1.75
p3282
sg19
S''
sg20
V1.75
p3283
sg22
V155.5
p3284
sg24
S'89'
p3285
sg26
V+4.5
p3286
sg28
S''
sg29
S'20150503'
p3287
sg31
V140
p3288
sg33
S'65'
p3289
sg35
V53
p3290
sg37
S'322'
p3291
sg39
V-4.5
p3292
sa(dp3293
g3
V\u7562\u723e\u5305
p3294
sg5
V\u5c24\u6587\u5716\u7279
p3295
sg7
V1.75
p3296
sg9
V
sg10
V1.75
p3297
sg12
V99
p3298
sg14
V81
p3299
sg16
V
sg17
V1.75
p3300
sg19
S''
sg20
V1.75
p3301
sg22
V156.5
p3302
sg24
S'95'
p3303
sg26
V+5.5
p3304
sg28
S''
sg29
g3287
sg31
V151
p3305
sg33
S'92'
p3306
sg35
V41
p3307
sg37
S'340'
p3308
sg39
V-5.5
p3309
sa(dp3310
g3
V\u8056\u585e\u5df4\u65af\u63d0\u5b89
p3311
sg5
V\u52a0\u90a3\u5229\u65af
p3312
sg7
V1.75
p3313
sg9
V
sg10
V1.75
p3314
sg12
V25
p3315
sg14
V40
p3316
sg16
V
sg17
V1.75
p3317
sg19
S''
sg20
V1.75
p3318
sg22
V151.5
p3319
sg24
S'77'
p3320
sg26
V-2.5
p3321
sg28
S''
sg29
g3287
sg31
V26
p3322
sg33
S'76'
p3323
sg35
V13
p3324
sg37
S'342'
p3325
sg39
V+2.5
p3326
sa(dp3327
g3
V\u70cf\u5c3c\u5361\u4e9e
p3328
sg5
V\u85a9\u62c9\u6208\u85a9
p3329
sg7
V1.75
p3330
sg9
V
sg10
V1.75
p3331
sg12
V22
p3332
sg14
V25
p3333
sg16
V
sg17
V1.75
p3334
sg19
S''
sg20
V1.75
p3335
sg22
V153.5
p3336
sg24
S'86'
p3337
sg26
V+9.5
p3338
sg28
S''
sg29
g3287
sg31
V43
p3339
sg33
S'90'
p3340
sg35
V12
p3341
sg37
S'330'
p3342
sg39
V-9.5
p3343
sa(dp3344
g3
V\u5df4\u585e\u9686\u7d0d
p3345
sg5
V\u963f\u745f\u6cd5\u5b78\u751f
p3346
sg7
V1.75
p3347
sg9
V
sg10
V1.75
p3348
sg12
V22
p3349
sg14
V23
p3350
sg16
V
sg17
V1.75
p3351
sg19
S''
sg20
V1.75
p3352
sg22
V154.5
p3353
sg24
S'76'
p3354
sg26
V+16.5
p3355
sg28
S''
sg29
g3287
sg31
V49
p3356
sg33
S'62'
p3357
sg35
V11
p3358
sg37
S'332'
p3359
sg39
V-16.5
p3360
sa(dp3361
g3
V\u8499\u5df4\u65af
p3362
sg5
V\u7687\u5bb6\u99ac\u5fb7\u91cc
p3363
sg7
V1.75
p3364
sg9
V
sg10
V1.75
p3365
sg12
V17
p3366
sg14
V53
p3367
sg16
V
sg17
V1.75
p3368
sg19
S''
sg20
V1.75
p3369
sg22
V159.5
p3370
sg24
S'76'
p3371
sg26
V-9.5
p3372
sg28
S''
sg29
g3287
sg31
V28
p3373
sg33
S'85'
p3374
sg35
V16
p3375
sg37
S'343'
p3376
sg39
V+9.5
p3377
sa(dp3378
g3
V\u5927\u52a0\u90a3\u5229
p3379
sg5
V\u74e6\u502b\u897f\u4e9e
p3380
sg7
V1.75
p3381
sg9
V
sg10
V1.75
p3382
sg12
V24
p3383
sg14
V51
p3384
sg16
V
sg17
V1.75
p3385
sg19
S''
sg20
V1.75
p3386
sg22
V160.5
p3387
sg24
S'90'
p3388
sg26
V-2.5
p3389
sg28
S''
sg29
g3287
sg31
V26
p3390
sg33
S'76'
p3391
sg35
V10
p3392
sg37
S'323'
p3393
sg39
V+2.5
p3394
sa(dp3395
g3
V\u66fc\u96f7\u85a9
p3396
sg5
V\u8c50\u62c9\u592b\u62c9\u9054
p3397
sg7
V1.75
p3398
sg9
V
sg10
V1.75
p3399
sg12
V98
p3400
sg14
V94
p3401
sg16
V
sg17
V1.75
p3402
sg19
S''
sg20
V1.75
p3403
sg22
V152.5
p3404
sg24
S'68'
p3405
sg26
V+2.5
p3406
sg28
S''
sg29
S'20150502'
p3407
sg31
V136
p3408
sg33
S'53'
p3409
sg35
V67
p3410
sg37
S'324'
p3411
sg39
V-2.5
p3412
sa(dp3413
g3
V\u7687\u5bb6\u99ac\u5fb7\u91cc
p3414
sg5
V\u70cf\u5c3c\u5361\u4e9e
p3415
sg7
V1.75
p3416
sg9
V
sg10
V1.75
p3417
sg12
V100
p3418
sg14
V102
p3419
sg16
V
sg17
V1.75
p3420
sg19
S''
sg20
V1.75
p3421
sg22
V161.5
p3422
sg24
S'92'
p3423
sg26
V+10.5
p3424
sg28
S''
sg29
S'20150501'
p3425
sg31
V120
p3426
sg33
S'77'
p3427
sg35
V55
p3428
sg37
S'310'
p3429
sg39
V-10.5
p3430
sa(dp3431
g3
V\u5df4\u585e\u9686\u7d0d
p3432
sg5
V\u8499\u5df4\u65af
p3433
sg7
V1.75
p3434
sg9
V
sg10
V1.75
p3435
sg12
V77
p3436
sg14
V96
p3437
sg16
V
sg17
V1.75
p3438
sg19
S''
sg20
V1.75
p3439
sg22
V152.5
p3440
sg24
S'79'
p3441
sg26
V+18.5
p3442
sg28
S''
sg29
g3425
sg31
V116
p3443
sg33
S'57'
p3444
sg35
V72
p3445
sg37
S'311'
p3446
sg39
V-18.5
p3447
sa(dp3448
g3
V\u963f\u745f\u6cd5\u5b78\u751f
p3449
sg5
V\u8499\u5df4\u65af
p3450
sg7
V1.75
p3451
sg9
V1.25
p3452
sg10
V1.75
p3453
sg12
V93
p3454
sg14
V75
p3455
sg16
V2.85
p3456
sg17
V1.75
p3457
sg19
V9
sg20
V1.75
p3458
sg22
V149.5
p3459
sg24
S'79'
p3460
sg26
V+6.5
p3461
sg28
V76
p3462
sg29
S'20150427'
p3463
sg31
V126
p3464
sg33
S'57'
p3465
sg35
V56
p3466
sg37
S'343'
p3467
sg39
V-6.5
p3468
sa(dp3469
g3
V\u74e6\u502b\u897f\u4e9e
p3470
sg5
V\u66fc\u96f7\u85a9
p3471
sg7
V1.75
p3472
sg9
V
sg10
V1.75
p3473
sg12
V70
p3474
sg14
V69
p3475
sg16
V
sg17
V1.75
p3476
sg19
S''
sg20
V1.75
p3477
sg22
V160.5
p3478
sg24
S'84'
p3479
sg26
V+18.5
p3480
sg28
S''
sg29
S'20150426'
p3481
sg31
V92
p3482
sg33
S'81'
p3483
sg35
V35
p3484
sg37
S'336'
p3485
sg39
V-18.5
p3486
sa(dp3487
g3
V\u8c50\u62c9\u592b\u62c9\u9054
p3488
sg5
V\u52de\u52d5\u8005\u9280\u884c
p3489
sg7
V1.75
p3490
sg9
V2.85
p3491
sg10
V1.75
p3492
sg12
V50
p3493
sg14
V118
p3494
sg16
V1.25
p3495
sg17
V1.75
p3496
sg19
V62
p3497
sg20
V1.75
p3498
sg22
V162.5
p3499
sg24
S'91'
p3500
sg26
V-6.5
p3501
sg28
V7
sg29
g3481
sg31
V75
p3502
sg33
S'83'
p3503
sg35
V47
p3504
sg37
S'337'
p3505
sg39
V+6.5
p3506
sa(dp3507
g3
V\u8cfd\u7dad\u4e9e
p3508
sg5
V\u70cf\u5c3c\u5361\u4e9e
p3509
sg7
V1.75
p3510
sg9
V2.85
p3511
sg10
V1.75
p3512
sg12
V47
p3513
sg14
V109
p3514
sg16
V1.25
p3515
sg17
V1.75
p3516
sg19
V58
p3517
sg20
V1.75
p3518
sg22
V157.5
p3519
sg24
S'75'
p3520
sg26
V-6.5
p3521
sg28
V9
sg29
g3481
sg31
V79
p3522
sg33
S'70'
p3523
sg35
V52
p3524
sg37
S'338'
p3525
sg39
V+6.5
p3526
sa(dp3527
g3
V\u5c24\u6587\u5716\u7279
p3528
sg5
V\u8056\u585e\u5df4\u65af\u63d0\u5b89
p3529
sg7
V1.75
p3530
sg9
V1.15
p3531
sg10
V1.75
p3532
sg12
V45
p3533
sg14
V59
p3534
sg16
V3.5
p3535
sg17
V1.75
p3536
sg19
V8
sg20
V1.75
p3537
sg22
V149.5
p3538
sg24
S'91'
p3539
sg26
V+8.5
p3540
sg28
V66
p3541
sg29
g3481
sg31
V113
p3542
sg33
S'66'
p3543
sg35
V52
p3544
sg37
S'339'
p3545
sg39
V-8.5
p3546
sa(dp3547
g3
V\u7687\u5bb6\u99ac\u5fb7\u91cc
p3548
sg5
V\u7562\u723e\u5305
p3549
sg7
V1.75
p3550
sg9
V
sg10
V1.75
p3551
sg12
V40
p3552
sg14
V32
p3553
sg16
V
sg17
V1.75
p3554
sg19
S''
sg20
V1.75
p3555
sg22
V162.5
p3556
sg24
S'78'
p3557
sg26
V+14.5
p3558
sg28
S''
sg29
g3481
sg31
V48
p3559
sg33
S'52'
p3560
sg35
V10
p3561
sg37
S'340'
p3562
sg39
V-14.5
p3563
sa(dp3564
g3
V\u7a46\u723e\u897f\u4e9e
p3565
sg5
V\u5b89\u591a\u62c9
p3566
sg7
V1.75
p3567
sg9
V1.2
p3568
sg10
V1.75
p3569
sg12
V25
p3570
sg14
V34
p3571
sg16
V3.1
p3572
sg17
V1.75
p3573
sg19
V2
sg20
V1.75
p3574
sg22
V155.5
p3575
sg24
S'73'
p3576
sg26
V+7.5
p3577
sg28
V31
p3578
sg29
g3481
sg31
V38
p3579
sg33
S'77'
p3580
sg35
V19
p3581
sg37
S'341'
p3582
sg39
V-7.5
p3583
sa(dp3584
g3
V\u85a9\u62c9\u6208\u85a9
p3585
sg5
V\u5df4\u585e\u9686\u7d0d
p3586
sg7
V1.75
p3587
sg9
V2.85
p3588
sg10
V1.75
p3589
sg12
V19
p3590
sg14
V61
p3591
sg16
V1.25
p3592
sg17
V1.75
p3593
sg19
V35
p3594
sg20
V1.75
p3595
sg22
V154.5
p3596
sg24
S'67'
p3597
sg26
V-6.5
p3598
sg28
V2
sg29
g3481
sg31
V30
p3599
sg33
S'103'
p3600
sg35
V19
p3601
sg37
S'342'
p3602
sg39
V+6.5
p3603
sa(dp3604
g3
V\u8056\u585e\u5df4\u65af\u63d0\u5b89
p3605
sg5
V\u8c50\u62c9\u592b\u62c9\u9054
p3606
sg7
V1.75
p3607
sg9
V1.15
p3608
sg10
V1.75
p3609
sg12
V102
p3610
sg14
V111
p3611
sg16
V3.5
p3612
sg17
V1.75
p3613
sg19
V8
sg20
V1.75
p3614
sg22
V150.5
p3615
sg24
S'74'
p3616
sg26
V+8.5
p3617
sg28
V61
p3618
sg29
S'20150420'
p3619
sg31
V94
p3620
sg33
S'86'
p3621
sg35
V52
p3622
sg37
S'344'
p3623
sg39
V-8.5
p3624
sa(dp3625
g3
V\u7562\u723e\u5305
p3626
sg5
V\u52a0\u90a3\u5229\u65af
p3627
sg7
V1.75
p3628
sg9
V1.15
p3629
sg10
V1.75
p3630
sg12
V69
p3631
sg14
V76
p3632
sg16
V3.5
p3633
sg17
V1.75
p3634
sg19
V6
sg20
V1.75
p3635
sg22
V156.5
p3636
sg24
S'83'
p3637
sg26
V+8.5
p3638
sg28
V69
p3639
sg29
S'20150419'
p3640
sg31
V122
p3641
sg33
S'101'
p3642
sg35
V55
p3643
sg37
S'339'
p3644
sg39
V-8.5
p3645
sa(dp3646
g3
V\u66fc\u96f7\u85a9
p3647
sg5
V\u8cfd\u7dad\u4e9e
p3648
sg7
V1.75
p3649
sg9
V1.5
p3650
sg10
V1.75
p3651
sg12
V54
p3652
sg14
V113
p3653
sg16
V2.05
p3654
sg17
V1.75
p3655
sg19
V29
p3656
sg20
V1.75
p3657
sg22
V153.5
p3658
sg24
S'72'
p3659
sg26
V+2.5
p3660
sg28
V50
p3661
sg29
g3640
sg31
V90
p3662
sg33
S'78'
p3663
sg35
V67
p3664
sg37
S'340'
p3665
sg39
V-2.5
p3666
sa(dp3667
g3
V\u52de\u52d5\u8005\u9280\u884c
p3668
sg5
V\u85a9\u62c9\u6208\u85a9
p3669
sg7
V1.75
p3670
sg9
V
sg10
V1.75
p3671
sg12
V32
p3672
sg14
V33
p3673
sg16
V
sg17
V1.75
p3674
sg19
S''
sg20
V1.75
p3675
sg22
V161.5
p3676
sg24
S'73'
p3677
sg26
V+10.5
p3678
sg28
S''
sg29
g3640
sg31
V51
p3679
sg33
S'45'
p3680
sg35
V23
p3681
sg37
S'341'
p3682
sg39
V-10.5
p3683
sa(dp3684
g3
V\u5c24\u6587\u5716\u7279
p3685
sg5
V\u74e6\u502b\u897f\u4e9e
p3686
sg7
V1.75
p3687
sg9
V2.45
p3688
sg10
V1.75
p3689
sg12
V27
p3690
sg14
V47
p3691
sg16
V1.35
p3692
sg17
V1.75
p3693
sg19
V24
p3694
sg20
V1.75
p3695
sg22
V162.5
p3696
sg24
S'91'
p3697
sg26
V-4.5
p3698
sg28
V9
sg29
g3640
sg31
V50
p3699
sg33
S'95'
p3700
sg35
V25
p3701
sg37
S'342'
p3702
sg39
V+4.5
p3703
sa(dp3704
g3
V\u5927\u52a0\u90a3\u5229
p3705
sg5
V\u7a46\u723e\u897f\u4e9e
p3706
sg7
V1.75
p3707
sg9
V1.1
p3708
sg10
V1.75
p3709
sg12
V23
p3710
sg14
V41
p3711
sg16
V4
sg17
V1.75
p3712
sg19
V6
sg20
V1.75
p3713
sg22
V153.5
p3714
sg24
S'80'
p3715
sg26
V+9.5
p3716
sg28
V31
p3717
sg29
g3640
sg31
V43
p3718
sg33
S'92'
p3719
sg35
V31
p3720
sg37
S'343'
p3721
sg39
V-9.5
p3722
sa(dp3723
g3
V\u5b89\u591a\u62c9
p3724
sg5
V\u963f\u745f\u6cd5\u5b78\u751f
p3725
sg7
V1.75
p3726
sg9
V1.3
p3727
sg10
V1.75
p3728
sg12
V72
p3729
sg14
V72
p3730
sg16
V2.6
p3731
sg17
V1.75
p3732
sg19
V11
p3733
sg20
V1.75
p3734
sg22
V152.5
p3735
sg24
S'81'
p3736
sg26
V+5.5
p3737
sg28
V76
p3738
sg29
S'20150418'
p3739
sg31
V136
p3740
sg33
S'76'
p3741
sg35
V56
p3742
sg37
S'338'
p3743
sg39
V-5.5
p3744
sa(dp3745
g3
V\u8499\u5df4\u65af
p3746
sg5
V\u7562\u723e\u5305
p3747
sg7
V1.65
p3748
sg9
V1.7
p3749
sg10
V1.75
p3750
sg12
V68
p3751
sg14
V100
p3752
sg16
V1.8
p3753
sg17
V1.85
p3754
sg19
V39
p3755
sg20
V1.75
p3756
sg22
V150.5
p3757
sg24
S'77'
p3758
sg26
V+1.5
p3759
sg28
V36
p3760
sg29
S'20150413'
p3761
sg31
V83
p3762
sg33
S'72'
p3763
sg35
V49
p3764
sg37
S'341'
p3765
sg39
V-1.5
p3766
sa(dp3767
g3
V\u963f\u745f\u6cd5\u5b78\u751f
p3768
sg5
V\u70cf\u5c3c\u5361\u4e9e
p3769
sg7
V1.75
p3770
sg9
V2.05
p3771
sg10
V1.75
p3772
sg12
V64
p3773
sg14
V131
p3774
sg16
V1.5
p3775
sg17
V1.75
p3776
sg19
V63
p3777
sg20
V1.75
p3778
sg22
V153.5
p3779
sg24
S'78'
p3780
sg26
V-2.5
p3781
sg28
V18
p3782
sg29
g3761
sg31
V75
p3783
sg33
S'85'
p3784
sg35
V47
p3785
sg37
S'342'
p3786
sg39
V+2.5
p3787
sa(dp3788
g3
V\u8c50\u62c9\u592b\u62c9\u9054
p3789
sg5
V\u5927\u52a0\u90a3\u5229
p3790
sg7
V1.75
p3791
sg9
V2.15
p3792
sg10
V1.75
p3793
sg12
V53
p3794
sg14
V140
p3795
sg16
V1.45
p3796
sg17
V1.75
p3797
sg19
V60
p3798
sg20
V1.75
p3799
sg22
V157.5
p3800
sg24
S'65'
p3801
sg26
V-3.5
p3802
sg28
V24
p3803
sg29
g3761
sg31
V71
p3804
sg33
S'76'
p3805
sg35
V54
p3806
sg37
S'343'
p3807
sg39
V+3.5
p3808
sa(dp3809
g3
V\u8cfd\u7dad\u4e9e
p3810
sg5
V\u52de\u52d5\u8005\u9280\u884c
p3811
sg7
V1.75
p3812
sg9
V2.15
p3813
sg10
V1.75
p3814
sg12
V67
p3815
sg14
V105
p3816
sg16
V1.45
p3817
sg17
V1.75
p3818
sg19
V51
p3819
sg20
V1.75
p3820
sg22
V163.5
p3821
sg24
S'83'
p3822
sg26
V-3.5
p3823
sg28
V19
p3824
sg29
S'20150412'
p3825
sg31
V75
p3826
sg33
S'91'
p3827
sg35
V45
p3828
sg37
S'335'
p3829
sg39
V+3.5
p3830
sa(dp3831
g3
V\u74e6\u502b\u897f\u4e9e
p3832
sg5
V\u8056\u585e\u5df4\u65af\u63d0\u5b89
p3833
sg7
V1.75
p3834
sg9
V
sg10
V1.75
p3835
sg12
V60
p3836
sg14
V54
p3837
sg16
V
sg17
V1.75
p3838
sg19
S''
sg20
V1.75
p3839
sg22
V155.5
p3840
sg24
S'109'
p3841
sg26
V+10.5
p3842
sg28
S''
sg29
g3825
sg31
V142
p3843
sg33
S'86'
p3844
sg35
V54
p3845
sg37
S'336'
p3846
sg39
V-10.5
p3847
sa(dp3848
g3
V\u85a9\u62c9\u6208\u85a9
p3849
sg5
V\u5b89\u591a\u62c9
p3850
sg7
V1.75
p3851
sg9
V1.15
p3852
sg10
V1.75
p3853
sg12
V66
p3854
sg14
V90
p3855
sg16
V3.5
p3856
sg17
V1.75
p3857
sg19
V8
sg20
V1.75
p3858
sg22
V153.5
p3859
sg24
S'84'
p3860
sg26
V+8.5
p3861
sg28
V62
p3862
sg29
g3825
sg31
V98
p3863
sg33
S'79'
p3864
sg35
V55
p3865
sg37
S'337'
p3866
sg39
V-8.5
p3867
sa(dp3868
g3
V\u7687\u5bb6\u99ac\u5fb7\u91cc
p3869
sg5
V\u5df4\u585e\u9686\u7d0d
p3870
sg7
V1.75
p3871
sg9
V1.25
p3872
sg10
V1.75
p3873
sg12
V41
p3874
sg14
V40
p3875
sg16
V2.85
p3876
sg17
V1.75
p3877
sg19
V11
p3878
sg20
V1.75
p3879
sg22
V164.5
p3880
sg24
S'91'
p3881
sg26
V+6.5
p3882
sg28
V22
p3883
sg29
g3825
sg31
V44
p3884
sg33
S'78'
p3885
sg35
V15
p3886
sg37
S'338'
p3887
sg39
V-6.5
p3888
sa(dp3889
g3
V\u7a46\u723e\u897f\u4e9e
p3890
sg5
V\u66fc\u96f7\u85a9
p3891
sg7
V1.75
p3892
sg9
V1.15
p3893
sg10
V1.75
p3894
sg12
V21
p3895
sg14
V34
p3896
sg16
V3.5
p3897
sg17
V1.75
p3898
sg19
V5
sg20
V1.75
p3899
sg22
V151.5
p3900
sg24
S'83'
p3901
sg26
V+8.5
p3902
sg28
V29
p3903
sg29
g3825
sg31
V36
p3904
sg33
S'72'
p3905
sg35
V18
p3906
sg37
S'339'
p3907
sg39
V-8.5
p3908
sa(dp3909
g3
V\u52a0\u90a3\u5229\u65af
p3910
sg5
V\u5c24\u6587\u5716\u7279
p3911
sg7
V1.75
p3912
sg9
V1.45
p3913
sg10
V1.75
p3914
sg12
V21
p3915
sg14
V34
p3916
sg16
V2.15
p3917
sg17
V1.75
p3918
sg19
V13
p3919
sg20
V1.75
p3920
sg22
V154.5
p3921
sg24
S'89'
p3922
sg26
V+3.5
p3923
sg28
V25
p3924
sg29
g3825
sg31
V48
p3925
sg33
S'83'
p3926
sg35
V22
p3927
sg37
S'340'
p3928
sg39
V-3.5
p3929
sa(dp3930
g3
V\u5c24\u6587\u5716\u7279
p3931
sg5
V\u66fc\u96f7\u85a9
p3932
sg7
V1.75
p3933
sg9
V1.15
p3934
sg10
V1.75
p3935
sg12
V102
p3936
sg14
V83
p3937
sg16
V3.5
p3938
sg17
V1.75
p3939
sg19
V5
sg20
V1.75
p3940
sg22
V152.5
p3941
sg24
S'82'
p3942
sg26
V+8.5
p3943
sg28
V99
p3944
sg29
S'20150407'
p3945
sg31
V184
p3946
sg33
S'63'
p3947
sg35
V73
p3948
sg37
S'347'
p3949
sg39
V-8.5
p3950
sa(dp3951
g3
V\u8cfd\u7dad\u4e9e
p3952
sg5
V\u8499\u5df4\u65af
p3953
sg7
V1.75
p3954
sg9
V1.35
p3955
sg10
V1.75
p3956
sg12
V58
p3957
sg14
V61
p3958
sg16
V2.45
p3959
sg17
V1.75
p3960
sg19
V14
p3961
sg20
V1.75
p3962
sg22
V151.5
p3963
sg24
S'86'
p3964
sg26
V+4.5
p3965
sg28
V63
p3966
sg29
S'20150406'
p3967
sg31
V135
p3968
sg33
S'60'
p3969
sg35
V47
p3970
sg37
S'345'
p3971
sg39
V-4.5
p3972
sa(dp3973
g3
V\u963f\u745f\u6cd5\u5b78\u751f
p3974
sg5
V\u7562\u723e\u5305
p3975
sg7
V1.65
p3976
sg9
V1.7
p3977
sg10
V1.75
p3978
sg12
V65
p3979
sg14
V130
p3980
sg16
V1.8
p3981
sg17
V1.85
p3982
sg19
V52
p3983
sg20
V1.75
p3984
sg22
V152.5
p3985
sg24
S'83'
p3986
sg26
V+1.5
p3987
sg28
V44
p3988
sg29
g3967
sg31
V84
p3989
sg33
S'77'
p3990
sg35
V59
p3991
sg37
S'346'
p3992
sg39
V-1.5
p3993
sa(dp3994
g3
V\u8056\u585e\u5df4\u65af\u63d0\u5b89
p3995
sg5
V\u5927\u52a0\u90a3\u5229
p3996
sg7
V1.85
p3997
sg9
V1.8
p3998
sg10
V1.75
p3999
sg12
V59
p4000
sg14
V101
p4001
sg16
V1.7
p4002
sg17
V1.65
p4003
sg19
V36
p4004
sg20
V1.75
p4005
sg22
V150.5
p4006
sg24
S'72'
p4007
sg26
V-1.5
p4008
sg28
V27
p4009
sg29
S'20150405'
p4010
sg31
V74
p4011
sg33
S'74'
p4012
sg35
V33
p4013
sg37
S'339'
p4014
sg39
V+1.5
p4015
sa(dp4016
g3
V\u74e6\u502b\u897f\u4e9e
p4017
sg5
V\u5b89\u591a\u62c9
p4018
sg7
V1.75
p4019
sg9
V
sg10
V1.75
p4020
sg12
V68
p4021
sg14
V88
p4022
sg16
V
sg17
V1.75
p4023
sg19
S''
sg20
V1.75
p4024
sg22
V159.5
p4025
sg24
S'95'
p4026
sg26
V+12.5
p4027
sg28
S''
sg29
g4010
sg31
V97
p4028
sg33
S'91'
p4029
sg35
V47
p4030
sg37
S'340'
p4031
sg39
V-12.5
p4032
sa(dp4033
g3
V\u8c50\u62c9\u592b\u62c9\u9054
p4034
sg5
V\u70cf\u5c3c\u5361\u4e9e
p4035
sg7
V1.75
p4036
sg9
V2.85
p4037
sg10
V1.75
p4038
sg12
V76
p4039
sg14
V117
p4040
sg16
V1.25
p4041
sg17
V1.75
p4042
sg19
V68
p4043
sg20
V1.75
p4044
sg22
V158.5
p4045
sg24
S'75'
p4046
sg26
V-6.5
p4047
sg28
V3
sg29
g4010
sg31
V77
p4048
sg33
S'78'
p4049
sg35
V33
p4050
sg37
S'341'
p4051
sg39
V+6.5
p4052
sa(dp4053
g3
V\u52a0\u90a3\u5229\u65af
p4054
sg5
V\u52de\u52d5\u8005\u9280\u884c
p4055
sg7
V1.75
p4056
sg9
V2.15
p4057
sg10
V1.75
p4058
sg12
V25
p4059
sg14
V53
p4060
sg16
V1.45
p4061
sg17
V1.75
p4062
sg19
V37
p4063
sg20
V1.75
p4064
sg22
V162.5
p4065
sg24
S'91'
p4066
sg26
V-3.5
p4067
sg28
V5
sg29
g4010
sg31
V43
p4068
sg33
S'56'
p4069
sg35
V15
p4070
sg37
S'342'
p4071
sg39
V+3.5
p4072
sa(dp4073
g3
V\u85a9\u62c9\u6208\u85a9
p4074
sg5
V\u7687\u5bb6\u99ac\u5fb7\u91cc
p4075
sg7
V1.75
p4076
sg9
V3.5
p4077
sg10
V1.75
p4078
sg12
V31
p4079
sg14
V59
p4080
sg16
V1.15
p4081
sg17
V1.75
p4082
sg19
V20
p4083
sg20
V1.75
p4084
sg22
V162.5
p4085
sg24
S'74'
p4086
sg26
V-8.5
p4087
sg28
V0
sg29
g4010
sg31
V42
p4088
sg33
S'80'
p4089
sg35
V10
p4090
sg37
S'343'
p4091
sg39
V+8.5
p4092
sa(dp4093
g3
V\u7a46\u723e\u897f\u4e9e
p4094
sg5
V\u5df4\u585e\u9686\u7d0d
p4095
sg7
V1.75
p4096
sg9
V3.1
p4097
sg10
V1.75
p4098
sg12
V31
p4099
sg14
V62
p4100
sg16
V1.2
p4101
sg17
V1.75
p4102
sg19
V47
p4103
sg20
V1.75
p4104
sg22
V155.5
p4105
sg24
S'64'
p4106
sg26
V-7.5
p4107
sg28
V1
sg29
g4010
sg31
V37
p4108
sg33
S'76'
p4109
sg35
V10
p4110
sg37
S'344'
p4111
sg39
V+7.5
p4112
sa(dp4113
g3
V\u7687\u5bb6\u99ac\u5fb7\u91cc
p4114
sg5
V\u963f\u745f\u6cd5\u5b78\u751f
p4115
sg7
V1.75
p4116
sg9
V
sg10
V1.75
p4117
sg12
V84
p4118
sg14
V75
p4119
sg16
V
sg17
V1.75
p4120
sg19
S''
sg20
V1.75
p4121
sg22
V159.5
p4122
sg24
S'92'
p4123
sg26
V+15.5
p4124
sg28
S''
sg29
S'20150330'
p4125
sg31
V101
p4126
sg33
S'66'
p4127
sg35
V41
p4128
sg37
S'337'
p4129
sg39
V-15.5
p4130
sa(dp4131
g3
V\u70cf\u5c3c\u5361\u4e9e
p4132
sg5
V\u7a46\u723e\u897f\u4e9e
p4133
sg7
V1.75
p4134
sg9
V
sg10
V1.75
p4135
sg12
V58
p4136
sg14
V91
p4137
sg16
V
sg17
V1.75
p4138
sg19
S''
sg20
V1.75
p4139
sg22
V155.5
p4140
sg24
S'80'
p4141
sg26
V+13.5
p4142
sg28
S''
sg29
g4125
sg31
V89
p4143
sg33
S'56'
p4144
sg35
V36
p4145
sg37
S'338'
p4146
sg39
V-13.5
p4147
sa(dp4148
g3
V\u5b89\u591a\u62c9
p4149
sg5
V\u8c50\u62c9\u592b\u62c9\u9054
p4150
sg7
V1.75
p4151
sg9
V1.25
p4152
sg10
V1.75
p4153
sg12
V66
p4154
sg14
V66
p4155
sg16
V2.85
p4156
sg17
V1.75
p4157
sg19
V7
sg20
V1.75
p4158
sg22
V152.5
p4159
sg24
S'91'
p4160
sg26
V+6.5
p4161
sg28
V56
p4162
sg29
g4125
sg31
V135
p4163
sg33
S'85'
p4164
sg35
V34
p4165
sg37
S'331'
p4166
sg39
V-6.5
p4167
sa(dp4168
g3
V\u66fc\u96f7\u85a9
p4169
sg5
V\u52a0\u90a3\u5229\u65af
p4170
sg7
V1.75
p4171
sg9
V2.05
p4172
sg10
V1.75
p4173
sg12
V54
p4174
sg14
V120
p4175
sg16
V1.5
p4176
sg17
V1.75
p4177
sg19
V40
p4178
sg20
V1.75
p4179
sg22
V151.5
p4180
sg24
S'75'
p4181
sg26
V-2.5
p4182
sg28
V27
p4183
sg29
g4125
sg31
V104
p4184
sg33
S'73'
p4185
sg35
V39
p4186
sg37
S'336'
p4187
sg39
V+2.5
p4188
sa(dp4189
g3
V\u5df4\u585e\u9686\u7d0d
p4190
sg5
V\u8cfd\u7dad\u4e9e
p4191
sg7
V1.75
p4192
sg9
V
sg10
V1.75
p4193
sg12
V97
p4194
sg14
V97
p4195
sg16
V
sg17
V1.75
p4196
sg19
S''
sg20
V1.75
p4197
sg22
V158.5
p4198
sg24
S'99'
p4199
sg26
V+14.5
p4200
sg28
S''
sg29
S'20150329'
p4201
sg31
V145
p4202
sg33
S'83'
p4203
sg35
V70
p4204
sg37
S'335'
p4205
sg39
V-14.5
p4206
sa(dp4207
g3
V\u7562\u723e\u5305
p4208
sg5
V\u8056\u585e\u5df4\u65af\u63d0\u5b89
p4209
sg7
V1.75
p4210
sg9
V1.15
p4211
sg10
V1.75
p4212
sg12
V88
p4213
sg14
V104
p4214
sg16
V3.5
p4215
sg17
V1.75
p4216
sg19
V1
sg20
V1.75
p4217
sg22
V148.5
p4218
sg24
S'92'
p4219
sg26
V+8.5
p4220
sg28
V26
p4221
sg29
g4201
sg31
V131
p4222
sg33
S'66'
p4223
sg35
V67
p4224
sg37
S'332'
p4225
sg39
V-8.5
p4226
sa(dp4227
g3
V\u52de\u52d5\u8005\u9280\u884c
p4228
sg5
V\u74e6\u502b\u897f\u4e9e
p4229
sg7
V1.75
p4230
sg9
V1.35
p4231
sg10
V1.75
p4232
sg12
V28
p4233
sg14
V43
p4234
sg16
V2.45
p4235
sg17
V1.75
p4236
sg19
V10
p4237
sg20
V1.75
p4238
sg22
V163.5
p4239
sg24
S'94'
p4240
sg26
V+4.5
p4241
sg28
V29
p4242
sg29
g4201
sg31
V61
p4243
sg33
S'88'
p4244
sg35
V18
p4245
sg37
S'333'
p4246
sg39
V-4.5
p4247
sa(dp4248
g3
V\u8499\u5df4\u65af
p4249
sg5
V\u85a9\u62c9\u6208\u85a9
p4250
sg7
V1.85
p4251
sg9
V1.8
p4252
sg10
V1.75
p4253
sg12
V21
p4254
sg14
V43
p4255
sg16
V1.7
p4256
sg17
V1.65
p4257
sg19
V19
p4258
sg20
V1.75
p4259
sg22
V148.5
p4260
sg24
S'77'
p4261
sg26
V-1.5
p4262
sg28
V20
p4263
sg29
g4201
sg31
V49
p4264
sg33
S'69'
p4265
sg35
V19
p4266
sg37
S'330'
p4267
sg39
V+1.5
p4268
sa(dp4269
g3
V\u5927\u52a0\u90a3\u5229
p4270
sg5
V\u5c24\u6587\u5716\u7279
p4271
sg7
V1.75
p4272
sg9
V1.3
p4273
sg10
V1.75
p4274
sg12
V22
p4275
sg14
V41
p4276
sg16
V2.6
p4277
sg17
V1.75
p4278
sg19
V5
sg20
V1.75
p4279
sg22
V154.5
p4280
sg24
S'79'
p4281
sg26
V+5.5
p4282
sg28
V28
p4283
sg29
g4201
sg31
V58
p4284
sg33
S'77'
p4285
sg35
V24
p4286
sg37
S'334'
p4287
sg39
V-5.5
p4288
sa(dp4289
g3
V\u7a46\u723e\u897f\u4e9e
p4290
sg5
V\u7687\u5bb6\u99ac\u5fb7\u91cc
p4291
sg7
V1.75
p4292
sg9
V
sg10
V1.75
p4293
sg12
V103
p4294
sg14
V140
p4295
sg16
V
sg17
V1.75
p4296
sg19
S''
sg20
V1.75
p4297
sg22
V164.5
p4298
sg24
S'86'
p4299
sg26
V-12.5
p4300
sg28
S''
sg29
S'20150323'
p4301
sg31
V111
p4302
sg33
S'79'
p4303
sg35
V73
p4304
sg37
S'389'
p4305
sg39
V+12.5
p4306
sa(dp4307
g3
V\u8c50\u62c9\u592b\u62c9\u9054
p4308
sg5
V\u8499\u5df4\u65af
p4309
sg7
V1.75
p4310
sg9
V1.25
p4311
sg10
V1.75
p4312
sg12
V68
p4313
sg14
V112
p4314
sg16
V2.85
p4315
sg17
V1.75
p4316
sg19
V8
sg20
V1.75
p4317
sg22
V151.5
p4318
sg24
S'82'
p4319
sg26
V+6.5
p4320
sg28
V63
p4321
sg29
S'20150322'
p4322
sg31
V108
p4323
sg33
S'88'
p4324
sg35
V73
p4325
sg37
S'381'
p4326
sg39
V-6.5
p4327
sa(dp4328
g3
V\u5c24\u6587\u5716\u7279
p4329
sg5
V\u5b89\u591a\u62c9
p4330
sg7
V1.75
p4331
sg9
V1.1
p4332
sg10
V1.75
p4333
sg12
V98
p4334
sg14
V107
p4335
sg16
V4
sg17
V1.75
p4336
sg19
V8
sg20
V1.75
p4337
sg22
V155.5
p4338
sg24
S'67'
p4339
sg26
V+9.5
p4340
sg28
V75
p4341
sg29
g4322
sg31
V117
p4342
sg33
S'82'
p4343
sg35
V62
p4344
sg37
S'382'
p4345
sg39
V-9.5
p4346
sa(dp4347
g3
V\u8056\u585e\u5df4\u65af\u63d0\u5b89
p4348
sg5
V\u52de\u52d5\u8005\u9280\u884c
p4349
sg7
V1.75
p4350
sg9
V2.45
p4351
sg10
V1.75
p4352
sg12
V15
p4353
sg14
V24
p4354
sg16
V1.35
p4355
sg17
V1.75
p4356
sg19
V11
p4357
sg20
V1.75
p4358
sg22
V155.5
p4359
sg24
S'66'
p4360
sg26
V-4.5
p4361
sg28
V5
sg29
g4322
sg31
V37
p4362
sg33
S'95'
p4363
sg35
V12
p4364
sg37
S'383'
p4365
sg39
V+4.5
p4366
sa(dp4367
g3
V\u85a9\u62c9\u6208\u85a9
p4368
sg5
V\u7562\u723e\u5305
p4369
sg7
V1.75
p4370
sg9
V1.35
p4371
sg10
V1.75
p4372
sg12
V20
p4373
sg14
V25
p4374
sg16
V2.45
p4375
sg17
V1.75
p4376
sg19
V4
sg20
V1.75
p4377
sg22
V155.5
p4378
sg24
S'76'
p4379
sg26
V+4.5
p4380
sg28
V17
p4381
sg29
g4322
sg31
V36
p4382
sg33
S'64'
p4383
sg35
V8
sg37
S'384'
p4384
sg39
V-4.5
p4385
sa(dp4386
g3
V\u74e6\u502b\u897f\u4e9e
p4387
sg5
V\u5df4\u585e\u9686\u7d0d
p4388
sg7
V1.75
p4389
sg9
V2.45
p4390
sg10
V1.75
p4391
sg12
V30
p4392
sg14
V26
p4393
sg16
V1.35
p4394
sg17
V1.75
p4395
sg19
V13
p4396
sg20
V1.75
p4397
sg22
V158.5
p4398
sg24
S'93'
p4399
sg26
V-4.5
p4400
sg28
V4
sg29
g4322
sg31
V40
p4401
sg33
S'73'
p4402
sg35
V11
p4403
sg37
S'385'
p4404
sg39
V+4.5
p4405
sa(dp4406
g3
V\u8cfd\u7dad\u4e9e
p4407
sg5
V\u963f\u745f\u6cd5\u5b78\u751f
p4408
sg7
V1.75
p4409
sg9
V1.25
p4410
sg10
V1.75
p4411
sg12
V11
p4412
sg14
V28
p4413
sg16
V2.85
p4414
sg17
V1.75
p4415
sg19
V1
sg20
V1.75
p4416
sg22
V152.5
p4417
sg24
S'74'
p4418
sg26
V+6.5
p4419
sg28
V15
p4420
sg29
g4322
sg31
V24
p4421
sg33
S'65'
p4422
sg35
V11
p4423
sg37
S'386'
p4424
sg39
V-6.5
p4425
sa(dp4426
g3
V\u5927\u52a0\u90a3\u5229
p4427
sg5
V\u66fc\u96f7\u85a9
p4428
sg7
V1.75
p4429
sg9
V
sg10
V1.75
p4430
sg12
V15
p4431
sg14
V33
p4432
sg16
V
sg17
V1.75
p4433
sg19
S''
sg20
V1.75
p4434
sg22
V151.5
p4435
sg24
S'75'
p4436
sg26
V+13.5
p4437
sg28
S''
sg29
g4322
sg31
V25
p4438
sg33
S'81'
p4439
sg35
V13
p4440
sg37
S'387'
p4441
sg39
V-13.5
p4442
sa(dp4443
g3
V\u52a0\u90a3\u5229\u65af
p4444
sg5
V\u70cf\u5c3c\u5361\u4e9e
p4445
sg7
V1.75
p4446
sg9
V2.15
p4447
sg10
V1.75
p4448
sg12
V18
p4449
sg14
V35
p4450
sg16
V1.45
p4451
sg17
V1.75
p4452
sg19
V15
p4453
sg20
V1.75
p4454
sg22
V152.5
p4455
sg24
S'71'
p4456
sg26
V-3.5
p4457
sg28
V7
sg29
g4322
sg31
V39
p4458
sg33
S'89'
p4459
sg35
V13
p4460
sg37
S'388'
p4461
sg39
V+3.5
p4462
sa(dp4463
g3
V\u70cf\u5c3c\u5361\u4e9e
p4464
sg5
V\u74e6\u502b\u897f\u4e9e
p4465
sg7
V1.75
p4466
sg9
V1.35
p4467
sg10
V1.75
p4468
sg12
V71
p4469
sg14
V107
p4470
sg16
V2.45
p4471
sg17
V1.75
p4472
sg19
V19
p4473
sg20
V1.75
p4474
sg22
V154.5
p4475
sg24
S'89'
p4476
sg26
V+4.5
p4477
sg28
V56
p4478
sg29
S'20150316'
p4479
sg31
V130
p4480
sg33
S'85'
p4481
sg35
V46
p4482
sg37
S'330'
p4483
sg39
V-4.5
p4484
sa(dp4485
g3
V\u52de\u52d5\u8005\u9280\u884c
p4486
sg5
V\u5c24\u6587\u5716\u7279
p4487
sg7
V1.75
p4488
sg9
V1.2
p4489
sg10
V1.75
p4490
sg12
V91
p4491
sg14
V104
p4492
sg16
V3.1
p4493
sg17
V1.75
p4494
sg19
V7
sg20
V1.75
p4495
sg22
V162.5
p4496
sg24
S'87'
p4497
sg26
V+7.5
p4498
sg28
V70
p4499
sg29
g4479
sg31
V141
p4500
sg33
S'68'
p4501
sg35
V47
p4502
sg37
S'331'
p4503
sg39
V-7.5
p4504
sa(dp4505
g3
V\u7687\u5bb6\u99ac\u5fb7\u91cc
p4506
sg5
V\u8cfd\u7dad\u4e9e
p4507
sg7
V1.75
p4508
sg9
V
sg10
V1.75
p4509
sg12
V68
p4510
sg14
V102
p4511
sg16
V
sg17
V1.75
p4512
sg19
S''
sg20
V1.75
p4513
sg22
V164.5
p4514
sg24
S'87'
p4515
sg26
V+18.5
p4516
sg28
S''
sg29
g4479
sg31
V111
p4517
sg33
S'81'
p4518
sg35
V66
p4519
sg37
S'332'
p4520
sg39
V-18.5
p4521
sa(dp4522
g3
V\u8499\u5df4\u65af
p4523
sg5
V\u7a46\u723e\u897f\u4e9e
p4524
sg7
V1.75
p4525
sg9
V1.45
p4526
sg10
V1.75
p4527
sg12
V64
p4528
sg14
V86
p4529
sg16
V2.15
p4530
sg17
V1.75
p4531
sg19
V17
p4532
sg20
V1.75
p4533
sg22
V148.5
p4534
sg24
S'104'
p4535
sg26
V+3.5
p4536
sg28
V60
p4537
sg29
S'20150315'
p4538
sg31
V128
p4539
sg33
S'52'
p4540
sg35
V57
p4541
sg37
S'324'
p4542
sg39
V-3.5
p4543
sa(dp4544
g3
V\u5b89\u591a\u62c9
p4545
sg5
V\u52a0\u90a3\u5229\u65af
p4546
sg7
V1.75
p4547
sg9
V1.9
p4548
sg10
V1.75
p4549
sg12
V93
p4550
sg14
V113
p4551
sg16
V1.6
p4552
sg17
V1.75
p4553
sg19
V52
p4554
sg20
V1.75
p4555
sg22
V155.5
p4556
sg24
S'73'
p4557
sg26
V-1.5
p4558
sg28
V38
p4559
sg29
g4538
sg31
V105
p4560
sg33
S'58'
p4561
sg35
V44
p4562
sg37
S'325'
p4563
sg39
V+1.5
p4564
sa(dp4565
g3
V\u66fc\u96f7\u85a9
p4566
sg5
V\u8056\u585e\u5df4\u65af\u63d0\u5b89
p4567
sg7
V1.75
p4568
sg9
V1.9
p4569
sg10
V1.75
p4570
sg12
V52
p4571
sg14
V92
p4572
sg16
V1.6
p4573
sg17
V1.75
p4574
sg19
V34
p4575
sg20
V1.75
p4576
sg22
V148.5
p4577
sg24
S'64'
p4578
sg26
V-1.5
p4579
sg28
V47
p4580
sg29
g4538
sg31
V113
p4581
sg33
S'79'
p4582
sg35
V75
p4583
sg37
S'326'
p4584
sg39
V+1.5
p4585
sa(dp4586
g3
V\u963f\u745f\u6cd5\u5b78\u751f
p4587
sg5
V\u85a9\u62c9\u6208\u85a9
p4588
sg7
V1.75
p4589
sg9
V1.9
p4590
sg10
V1.75
p4591
sg12
V25
p4592
sg14
V55
p4593
sg16
V1.6
p4594
sg17
V1.75
p4595
sg19
V23
p4596
sg20
V1.75
p4597
sg22
V153.5
p4598
sg24
S'66'
p4599
sg26
V-1.5
p4600
sg28
V24
p4601
sg29
g4538
sg31
V45
p4602
sg33
S'61'
p4603
sg35
V16
p4604
sg37
S'327'
p4605
sg39
V+1.5
p4606
sa(dp4607
g3
V\u7562\u723e\u5305
p4608
sg5
V\u5927\u52a0\u90a3\u5229
p4609
sg7
V1.75
p4610
sg9
V1.3
p4611
sg10
V1.75
p4612
sg12
V47
p4613
sg14
V31
p4614
sg16
V2.6
p4615
sg17
V1.75
p4616
sg19
V3
sg20
V1.75
p4617
sg22
V153.5
p4618
sg24
S'90'
p4619
sg26
V+5.5
p4620
sg28
V39
p4621
sg29
g4538
sg31
V72
p4622
sg33
S'74'
p4623
sg35
V5
sg37
S'328'
p4624
sg39
V-5.5
p4625
sa(dp4626
g3
V\u5df4\u585e\u9686\u7d0d
p4627
sg5
V\u8c50\u62c9\u592b\u62c9\u9054
p4628
sg7
V1.75
p4629
sg9
V
sg10
V1.75
p4630
sg12
V37
p4631
sg14
V48
p4632
sg16
V
sg17
V1.75
p4633
sg19
S''
sg20
V1.75
p4634
sg22
V154.5
p4635
sg24
S'88'
p4636
sg26
V+18.5
p4637
sg28
S''
sg29
g4538
sg31
V51
p4638
sg33
S'82'
p4639
sg35
V21
p4640
sg37
S'329'
p4641
sg39
V-18.5
p4642
sa(dp4643
g3
V\u66fc\u96f7\u85a9
p4644
sg5
V\u70cf\u5c3c\u5361\u4e9e
p4645
sg7
V1.75
p4646
sg9
V
sg10
V1.75
p4647
sg12
V103
p4648
sg14
V153
p4649
sg16
V
sg17
V1.75
p4650
sg19
S''
sg20
V1.75
p4651
sg22
V152.5
p4652
sg24
S'80'
p4653
sg26
V-10.5
p4654
sg28
S''
sg29
S'20150309'
p4655
sg31
V119
p4656
sg33
S'76'
p4657
sg35
V94
p4658
sg37
S'360'
p4659
sg39
V+10.5
p4660
sa(dp4661
g3
V\u8056\u585e\u5df4\u65af\u63d0\u5b89
p4662
sg5
V\u8499\u5df4\u65af
p4663
sg7
V1.75
p4664
sg9
V1.35
p4665
sg10
V1.75
p4666
sg12
V51
p4667
sg14
V78
p4668
sg16
V2.45
p4669
sg17
V1.75
p4670
sg19
V13
p4671
sg20
V1.75
p4672
sg22
V141.5
p4673
sg24
S'97'
p4674
sg26
V+4.5
p4675
sg28
V55
p4676
sg29
S'20150308'
p4677
sg31
V128
p4678
sg33
S'94'
p4679
sg35
V63
p4680
sg37
S'354'
p4681
sg39
V-4.5
p4682
sa(dp4683
g3
V\u8c50\u62c9\u592b\u62c9\u9054
p4684
sg5
V\u8cfd\u7dad\u4e9e
p4685
sg7
V1.75
p4686
sg9
V1.3
p4687
sg10
V1.75
p4688
sg12
V66
p4689
sg14
V111
p4690
sg16
V2.6
p4691
sg17
V1.75
p4692
sg19
V15
p4693
sg20
V1.75
p4694
sg22
V155.5
p4695
sg24
S'82'
p4696
sg26
V+5.5
p4697
sg28
V46
p4698
sg29
g4677
sg31
V103
p4699
sg33
S'81'
p4700
sg35
V51
p4701
sg37
S'352'
p4702
sg39
V-5.5
p4703
sa(dp4704
g3
V\u52de\u52d5\u8005\u9280\u884c
p4705
sg5
V\u5b89\u591a\u62c9
p4706
sg7
V1.75
p4707
sg9
V
sg10
V1.75
p4708
sg12
V82
p4709
sg14
V105
p4710
sg16
V
sg17
V1.75
p4711
sg19
S''
sg20
V1.75
p4712
sg22
V163.5
p4713
sg24
S'89'
p4714
sg26
V+15.5
p4715
sg28
S''
sg29
g4677
sg31
V101
p4716
sg33
S'74'
p4717
sg35
V50
p4718
sg37
S'355'
p4719
sg39
V-15.5
p4720
sa(dp4721
g3
V\u74e6\u502b\u897f\u4e9e
p4722
sg5
V\u85a9\u62c9\u6208\u85a9
p4723
sg7
V1.75
p4724
sg9
V1.15
p4725
sg10
V1.75
p4726
sg12
V28
p4727
sg14
V43
p4728
sg16
V3.5
p4729
sg17
V1.75
p4730
sg19
V2
sg20
V1.75
p4731
sg22
V155.5
p4732
sg24
S'106'
p4733
sg26
V+8.5
p4734
sg28
V8
sg29
g4677
sg31
V39
p4735
sg33
S'109'
p4736
sg35
V24
p4737
sg37
S'357'
p4738
sg39
V-8.5
p4739
sa(dp4740
g3
V\u7a46\u723e\u897f\u4e9e
p4741
sg5
V\u7562\u723e\u5305
p4742
sg7
V1.75
p4743
sg9
V2.45
p4744
sg10
V1.75
p4745
sg12
V42
p4746
sg14
V60
p4747
sg16
V1.35
p4748
sg17
V1.75
p4749
sg19
V25
p4750
sg20
V1.75
p4751
sg22
V153.5
p4752
sg24
S'91'
p4753
sg26
V-4.5
p4754
sg28
V7
sg29
g4677
sg31
V40
p4755
sg33
S'65'
p4756
sg35
V14
p4757
sg37
S'359'
p4758
sg39
V+4.5
p4759
sa(dp4760
g3
V\u5c24\u6587\u5716\u7279
p4761
sg5
V\u7687\u5bb6\u99ac\u5fb7\u91cc
p4762
sg7
V1.75
p4763
sg9
V
sg10
V1.75
p4764
sg12
V46
p4765
sg14
V54
p4766
sg16
V
sg17
V1.75
p4767
sg19
S''
sg20
V1.75
p4768
sg22
V164.5
p4769
sg24
S'80'
p4770
sg26
V-10.5
p4771
sg28
S''
sg29
g4677
sg31
V39
p4772
sg33
S'81'
p4773
sg35
V22
p4774
sg37
S'353'
p4775
sg39
V+10.5
p4776
sa(dp4777
g3
V\u5927\u52a0\u90a3\u5229
p4778
sg5
V\u5df4\u585e\u9686\u7d0d
p4779
sg7
V1.75
p4780
sg9
V3.5
p4781
sg10
V1.75
p4782
sg12
V44
p4783
sg14
V49
p4784
sg16
V1.15
p4785
sg17
V1.75
p4786
sg19
V6
sg20
V1.75
p4787
sg22
V153.5
p4788
sg24
S'76'
p4789
sg26
V-8.5
p4790
sg28
V1
sg29
g4677
sg31
V49
p4791
sg33
S'70'
p4792
sg35
V18
p4793
sg37
S'356'
p4794
sg39
V+8.5
p4795
sa(dp4796
g3
V\u52a0\u90a3\u5229\u65af
p4797
sg5
V\u963f\u745f\u6cd5\u5b78\u751f
p4798
sg7
V1.75
p4799
sg9
V1.15
p4800
sg10
V1.75
p4801
sg12
V26
p4802
sg14
V43
p4803
sg16
V3.5
p4804
sg17
V1.75
p4805
sg19
V1
sg20
V1.75
p4806
sg22
V151.5
p4807
sg24
S'81'
p4808
sg26
V+8.5
p4809
sg28
V3
sg29
g4677
sg31
V28
p4810
sg33
S'74'
p4811
sg35
V24
p4812
sg37
S'358'
p4813
sg39
V-8.5
p4814
sa(dp4815
g3
V\u7562\u723e\u5305
p4816
sg5
V\u52de\u52d5\u8005\u9280\u884c
p4817
sg7
V1.75
p4818
sg9
V1.6
p4819
sg10
V1.75
p4820
sg12
V69
p4821
sg14
V106
p4822
sg16
V1.9
p4823
sg17
V1.75
p4824
sg19
V25
p4825
sg20
V1.75
p4826
sg22
V161.5
p4827
sg24
S'93'
p4828
sg26
V+1.5
p4829
sg28
V55
p4830
sg29
S'20150302'
p4831
sg31
V116
p4832
sg33
S'75'
p4833
sg35
V48
p4834
sg37
S'330'
p4835
sg39
V-1.5
p4836
sa(dp4837
g3
V\u963f\u745f\u6cd5\u5b78\u751f
p4838
sg5
V\u74e6\u502b\u897f\u4e9e
p4839
sg7
V1.75
p4840
sg9
V2.15
p4841
sg10
V1.75
p4842
sg12
V62
p4843
sg14
V151
p4844
sg16
V1.45
p4845
sg17
V1.75
p4846
sg19
V66
p4847
sg20
V1.75
p4848
sg22
V152.5
p4849
sg24
S'76'
p4850
sg26
V-3.5
p4851
sg28
V15
p4852
sg29
g4831
sg31
V81
p4853
sg33
S'81'
p4854
sg35
V58
p4855
sg37
S'331'
p4856
sg39
V+3.5
p4857
sa(dp4858
g3
V\u70cf\u5c3c\u5361\u4e9e
p4859
sg5
V\u5927\u52a0\u90a3\u5229
p4860
sg7
V1.75
p4861
sg9
V1.15
p4862
sg10
V1.75
p4863
sg12
V49
p4864
sg14
V82
p4865
sg16
V3.5
p4866
sg17
V1.75
p4867
sg19
V4
sg20
V1.75
p4868
sg22
V154.5
p4869
sg24
S'77'
p4870
sg26
V+8.5
p4871
sg28
V68
p4872
sg29
g4831
sg31
V118
p4873
sg33
S'68'
p4874
sg35
V53
p4875
sg37
S'332'
p4876
sg39
V-8.5
p4877
sa(dp4878
g3
V\u8499\u5df4\u65af
p4879
sg5
V\u5c24\u6587\u5716\u7279
p4880
sg7
V1.75
p4881
sg9
V2.05
p4882
sg10
V1.75
p4883
sg12
V71
p4884
sg14
V137
p4885
sg16
V1.5
p4886
sg17
V1.75
p4887
sg19
V58
p4888
sg20
V1.75
p4889
sg22
V149.5
p4890
sg24
S'67'
p4891
sg26
V-2.5
p4892
sg28
V34
p4893
sg29
S'20150301'
p4894
sg31
V101
p4895
sg33
S'71'
p4896
sg35
V63
p4897
sg37
S'324'
p4898
sg39
V+2.5
p4899
sa(dp4900
g3
V\u5b89\u591a\u62c9
p4901
sg5
V\u66fc\u96f7\u85a9
p4902
sg7
V1.75
p4903
sg9
V1.3
p4904
sg10
V1.75
p4905
sg12
V91
p4906
sg14
V87
p4907
sg16
V2.6
p4908
sg17
V1.75
p4909
sg19
V15
p4910
sg20
V1.75
p4911
sg22
V149.5
p4912
sg24
S'80'
p4913
sg26
V+5.5
p4914
sg28
V63
p4915
sg29
g4894
sg31
V126
p4916
sg33
S'64'
p4917
sg35
V60
p4918
sg37
S'325'
p4919
sg39
V-5.5
p4920
sa(dp4921
g3
V\u5df4\u585e\u9686\u7d0d
p4922
sg5
V\u8056\u585e\u5df4\u65af\u63d0\u5b89
p4923
sg7
V1.75
p4924
sg9
V
sg10
V1.75
p4925
sg12
V31
p4926
sg14
V44
p4927
sg16
V
sg17
V1.75
p4928
sg19
S''
sg20
V1.75
p4929
sg22
V151.5
p4930
sg24
S'71'
p4931
sg26
V+18.5
p4932
sg28
S''
sg29
g4894
sg31
V48
p4933
sg33
S'58'
p4934
sg35
V18
p4935
sg37
S'326'
p4936
sg39
V-18.5
p4937
sa(dp4938
g3
V\u85a9\u62c9\u6208\u85a9
p4939
sg5
V\u8c50\u62c9\u592b\u62c9\u9054
p4940
sg7
V1.75
p4941
sg9
V1.15
p4942
sg10
V1.75
p4943
sg12
V31
p4944
sg14
V33
p4945
sg16
V3.5
p4946
sg17
V1.75
p4947
sg19
V0
sg20
V1.75
p4948
sg22
V153.5
p4949
sg24
S'86'
p4950
sg26
V+8.5
p4951
sg28
V22
p4952
sg29
g4894
sg31
V45
p4953
sg33
S'69'
p4954
sg35
V16
p4955
sg37
S'327'
p4956
sg39
V-8.5
p4957
sa(dp4958
g3
V\u8cfd\u7dad\u4e9e
p4959
sg5
V\u7a46\u723e\u897f\u4e9e
p4960
sg7
V1.75
p4961
sg9
V1.35
p4962
sg10
V1.75
p4963
sg12
V15
p4964
sg14
V37
p4965
sg16
V2.45
p4966
sg17
V1.75
p4967
sg19
V6
sg20
V1.75
p4968
sg22
V154.5
p4969
sg24
S'83'
p4970
sg26
V+4.5
p4971
sg28
V25
p4972
sg29
g4894
sg31
V60
p4973
sg33
S'96'
p4974
sg35
V20
p4975
sg37
S'328'
p4976
sg39
V-4.5
p4977
sa(dp4978
g3
V\u7687\u5bb6\u99ac\u5fb7\u91cc
p4979
sg5
V\u52a0\u90a3\u5229\u65af
p4980
sg7
V1.75
p4981
sg9
V
sg10
V1.75
p4982
sg12
V32
p4983
sg14
V39
p4984
sg16
V
sg17
V1.75
p4985
sg19
S''
sg20
V1.75
p4986
sg22
V162.5
p4987
sg24
S'94'
p4988
sg26
V+15.5
p4989
sg28
S''
sg29
g4894
sg31
V55
p4990
sg33
S'85'
p4991
sg35
V17
p4992
sg37
S'329'
p4993
sg39
V-15.5
p4994
sa(dp4995
g3
V\u74e6\u502b\u897f\u4e9e
p4996
sg5
V\u7687\u5bb6\u99ac\u5fb7\u91cc
p4997
sg7
V1.75
p4998
sg9
V2.6
p4999
sg10
V1.75
p5000
sg12
V127
p5001
sg14
V185
p5002
sg16
V1.3
p5003
sg17
V1.75
p5004
sg19
V81
p5005
sg20
V1.75
p5006
sg22
V160.5
p5007
sg24
S'87'
p5008
sg26
V-5.5
p5009
sg28
V12
p5010
sg29
S'20150216'
p5011
sg31
V104
p5012
sg33
S'99'
p5013
sg35
V56
p5014
sg37
S'361'
p5015
sg39
V+5.5
p5016
sa(dp5017
g3
V\u66fc\u96f7\u85a9
p5018
sg5
V\u52de\u52d5\u8005\u9280\u884c
p5019
sg7
V1.75
p5020
sg9
V
sg10
V1.75
p5021
sg12
V87
p5022
sg14
V143
p5023
sg16
V
sg17
V1.75
p5024
sg19
S''
sg20
V1.75
p5025
sg22
V161.5
p5026
sg24
S'64'
p5027
sg26
V-10.5
p5028
sg28
S''
sg29
g5011
sg31
V127
p5029
sg33
S'71'
p5030
sg35
V90
p5031
sg37
S'368'
p5032
sg39
V+10.5
p5033
sa(dp5034
g3
V\u8c50\u62c9\u592b\u62c9\u9054
p5035
sg5
V\u963f\u745f\u6cd5\u5b78\u751f
p5036
sg7
V1.75
p5037
sg9
V1.6
p5038
sg10
V1.75
p5039
sg12
V65
p5040
sg14
V103
p5041
sg16
V1.9
p5042
sg17
V1.75
p5043
sg19
V25
p5044
sg20
V1.75
p5045
sg22
V150.5
p5046
sg24
S'93'
p5047
sg26
V+1.5
p5048
sg28
V67
p5049
sg29
S'20150215'
p5050
sg31
V148
p5051
sg33
S'84'
p5052
sg35
V72
p5053
sg37
S'360'
p5054
sg39
V-1.5
p5055
sa(dp5056
g3
V\u8cfd\u7dad\u4e9e
p5057
sg5
V\u7562\u723e\u5305
p5058
sg7
V1.75
p5059
sg9
V2.45
p5060
sg10
V1.75
p5061
sg12
V78
p5062
sg14
V160
p5063
sg16
V1.35
p5064
sg17
V1.75
p5065
sg19
V76
p5066
sg20
V1.75
p5067
sg22
V154.5
p5068
sg24
S'80'
p5069
sg26
V-4.5
p5070
sg28
V16
p5071
sg29
g5050
sg31
V108
p5072
sg33
S'69'
p5073
sg35
V66
p5074
sg37
S'363'
p5075
sg39
V+4.5
p5076
sa(dp5077
g3
V\u8056\u585e\u5df4\u65af\u63d0\u5b89
p5078
sg5
V\u70cf\u5c3c\u5361\u4e9e
p5079
sg7
V1.75
p5080
sg9
V3.1
p5081
sg10
V1.75
p5082
sg12
V21
p5083
sg14
V57
p5084
sg16
V1.2
p5085
sg17
V1.75
p5086
sg19
V40
p5087
sg20
V1.75
p5088
sg22
V147.5
p5089
sg24
S'72'
p5090
sg26
V-7.5
p5091
sg28
V6
sg29
g5050
sg31
V50
p5092
sg33
S'76'
p5093
sg35
V27
p5094
sg37
S'366'
p5095
sg39
V+7.5
p5096
sa(dp5097
g3
V\u7a46\u723e\u897f\u4e9e
p5098
sg5
V\u85a9\u62c9\u6208\u85a9
p5099
sg7
V1.75
p5100
sg9
V1.45
p5101
sg10
V1.75
p5102
sg12
V29
p5103
sg14
V48
p5104
sg16
V2.15
p5105
sg17
V1.75
p5106
sg19
V12
p5107
sg20
V1.75
p5108
sg22
V153.5
p5109
sg24
S'71'
p5110
sg26
V+3.5
p5111
sg28
V34
p5112
sg29
g5050
sg31
V53
p5113
sg33
S'75'
p5114
sg35
V21
p5115
sg37
S'362'
p5116
sg39
V-3.5
p5117
sa(dp5118
g3
V\u5c24\u6587\u5716\u7279
p5119
sg5
V\u5df4\u585e\u9686\u7d0d
p5120
sg7
V1.75
p5121
sg9
V2.6
p5122
sg10
V1.75
p5123
sg12
V39
p5124
sg14
V75
p5125
sg16
V1.3
p5126
sg17
V1.75
p5127
sg19
V41
p5128
sg20
V1.75
p5129
sg22
V156.5
p5130
sg24
S'61'
p5131
sg26
V-5.5
p5132
sg28
V12
p5133
sg29
g5050
sg31
V60
p5134
sg33
S'99'
p5135
sg35
V26
p5136
sg37
S'367'
p5137
sg39
V+5.5
p5138
sa(dp5139
g3
V\u52a0\u90a3\u5229\u65af
p5140
sg5
V\u8499\u5df4\u65af
p5141
sg7
V1.75
p5142
sg9
V1.25
p5143
sg10
V1.75
p5144
sg12
V21
p5145
sg14
V36
p5146
sg16
V2.85
p5147
sg17
V1.75
p5148
sg19
V6
sg20
V1.75
p5149
sg22
V148.5
p5150
sg24
S'77'
p5151
sg26
V+6.5
p5152
sg28
V38
p5153
sg29
g5050
sg31
V64
p5154
sg33
S'53'
p5155
sg35
V36
p5156
sg37
S'364'
p5157
sg39
V-6.5
p5158
sa(dp5159
g3
V\u5927\u52a0\u90a3\u5229
p5160
sg5
V\u5b89\u591a\u62c9
p5161
sg7
V1.75
p5162
sg9
V
sg10
V1.75
p5163
sg12
V30
p5164
sg14
V51
p5165
sg16
V
sg17
V1.75
p5166
sg19
S''
sg20
V1.75
p5167
sg22
V151.5
p5168
sg24
S'90'
p5169
sg26
V+11.5
p5170
sg28
S''
sg29
g5050
sg31
V60
p5171
sg33
S'81'
p5172
sg35
V21
p5173
sg37
S'365'
p5174
sg39
V-11.5
p5175
sa(dp5176
g3
V\u70cf\u5c3c\u5361\u4e9e
p5177
sg5
V\u5c24\u6587\u5716\u7279
p5178
sg7
V1.75
p5179
sg9
V1.25
p5180
sg10
V1.75
p5181
sg12
V56
p5182
sg14
V92
p5183
sg16
V2.85
p5184
sg17
V1.75
p5185
sg19
V9
sg20
V1.75
p5186
sg22
V154.5
p5187
sg24
S'81'
p5188
sg26
V+6.5
p5189
sg28
V60
p5190
sg29
S'20150209'
p5191
sg31
V140
p5192
sg33
S'77'
p5193
sg35
V55
p5194
sg37
S'359'
p5195
sg39
V-6.5
p5196
sa(dp5197
g3
V\u52de\u52d5\u8005\u9280\u884c
p5198
sg5
V\u5927\u52a0\u90a3\u5229
p5199
sg7
V1.75
p5200
sg9
V1.2
p5201
sg10
V1.75
p5202
sg12
V72
p5203
sg14
V101
p5204
sg16
V3.1
p5205
sg17
V1.75
p5206
sg19
V9
sg20
V1.75
p5207
sg22
V163.5
p5208
sg24
S'109'
p5209
sg26
V+7.5
p5210
sg28
V67
p5211
sg29
g5191
sg31
V128
p5212
sg33
S'70'
p5213
sg35
V49
p5214
sg37
S'360'
p5215
sg39
V-7.5
p5216
sa(dp5217
g3
V\u7687\u5bb6\u99ac\u5fb7\u91cc
p5218
sg5
V\u8c50\u62c9\u592b\u62c9\u9054
p5219
sg7
V1.75
p5220
sg9
V
sg10
V1.75
p5221
sg12
V74
p5222
sg14
V105
p5223
sg16
V
sg17
V1.75
p5224
sg19
S''
sg20
V1.75
p5225
sg22
V162.5
p5226
sg24
S'86'
p5227
sg26
V+18.5
p5228
sg28
S''
sg29
g5191
sg31
V120
p5229
sg33
S'69'
p5230
sg35
V65
p5231
sg37
S'362'
p5232
sg39
V-18.5
p5233
sa(dp5234
g3
V\u8499\u5df4\u65af
p5235
sg5
V\u74e6\u502b\u897f\u4e9e
p5236
sg7
V1.75
p5237
sg9
V2.15
p5238
sg10
V1.75
p5239
sg12
V76
p5240
sg14
V171
p5241
sg16
V1.45
p5242
sg17
V1.75
p5243
sg19
V69
p5244
sg20
V1.75
p5245
sg22
V149.5
p5246
sg24
S'62'
p5247
sg26
V-3.5
p5248
sg28
V30
p5249
sg29
S'20150208'
p5250
sg31
V88
p5251
sg33
S'73'
p5252
sg35
V71
p5253
sg37
S'328'
p5254
sg39
V+3.5
p5255
sa(dp5256
g3
V\u5b89\u591a\u62c9
p5257
sg5
V\u8056\u585e\u5df4\u65af\u63d0\u5b89
p5258
sg7
V1.75
p5259
sg9
V1.45
p5260
sg10
V1.75
p5261
sg12
V69
p5262
sg14
V79
p5263
sg16
V2.15
p5264
sg17
V1.75
p5265
sg19
V19
p5266
sg20
V1.75
p5267
sg22
V143.5
p5268
sg24
S'77'
p5269
sg26
V+3.5
p5270
sg28
V72
p5271
sg29
g5250
sg31
V166
p5272
sg33
S'88'
p5273
sg35
V82
p5274
sg37
S'355'
p5275
sg39
V-3.5
p5276
sa(dp5277
g3
V\u7562\u723e\u5305
p5278
sg5
V\u66fc\u96f7\u85a9
p5279
sg7
V1.75
p5280
sg9
V
sg10
V1.75
p5281
sg12
V26
p5282
sg14
V56
p5283
sg16
V
sg17
V1.75
p5284
sg19
S''
sg20
V1.75
p5285
sg22
V151.5
p5286
sg24
S'86'
p5287
sg26
V+14.5
p5288
sg28
S''
sg29
g5250
sg31
V37
p5289
sg33
S'77'
p5290
sg35
V17
p5291
sg37
S'361'
p5292
sg39
V-14.5
p5293
sa(dp5294
g3
V\u85a9\u62c9\u6208\u85a9
p5295
sg5
V\u8cfd\u7dad\u4e9e
p5296
sg7
V1.75
p5297
sg9
V1.2
p5298
sg10
V1.75
p5299
sg12
V31
p5300
sg14
V38
p5301
sg16
V3.1
p5302
sg17
V1.75
p5303
sg19
V4
sg20
V1.75
p5304
sg22
V149.5
p5305
sg24
S'97'
p5306
sg26
V+7.5
p5307
sg28
V31
p5308
sg29
g5250
sg31
V50
p5309
sg33
S'99'
p5310
sg35
V23
p5311
sg37
S'357'
p5312
sg39
V-7.5
p5313
sa(dp5314
g3
V\u5df4\u585e\u9686\u7d0d
p5315
sg5
V\u52a0\u90a3\u5229\u65af
p5316
sg7
V1.75
p5317
sg9
V
sg10
V1.75
p5318
sg12
V44
p5319
sg14
V47
p5320
sg16
V
sg17
V1.75
p5321
sg19
S''
sg20
V1.75
p5322
sg22
V155.5
p5323
sg24
S'87'
p5324
sg26
V+16.5
p5325
sg28
S''
sg29
g5250
sg31
V51
p5326
sg33
S'79'
p5327
sg35
V16
p5328
sg37
S'356'
p5329
sg39
V-16.5
p5330
sa(dp5331
g3
V\u963f\u745f\u6cd5\u5b78\u751f
p5332
sg5
V\u7a46\u723e\u897f\u4e9e
p5333
sg7
V1.75
p5334
sg9
V1.3
p5335
sg10
V1.75
p5336
sg12
V23
p5337
sg14
V42
p5338
sg16
V2.6
p5339
sg17
V1.75
p5340
sg19
V5
sg20
V1.75
p5341
sg22
V150.5
p5342
sg24
S'90'
p5343
sg26
V+5.5
p5344
sg28
V34
p5345
sg29
g5250
sg31
V52
p5346
sg33
S'79'
p5347
sg35
V23
p5348
sg37
S'358'
p5349
sg39
V-5.5
p5350
sa(dp5351
g3
V\u963f\u745f\u6cd5\u5b78\u751f
p5352
sg5
V\u5c24\u6587\u5716\u7279
p5353
sg7
V1.75
p5354
sg9
V2.05
p5355
sg10
V1.75
p5356
sg12
V81
p5357
sg14
V171
p5358
sg16
V1.5
p5359
sg17
V1.75
p5360
sg19
V76
p5361
sg20
V1.75
p5362
sg22
V151.5
p5363
sg24
S'78'
p5364
sg26
V-2.5
p5365
sg28
V30
p5366
sg29
S'20150202'
p5367
sg31
V107
p5368
sg33
S'75'
p5369
sg35
V65
p5370
sg37
S'358'
p5371
sg39
V+2.5
p5372
sa(dp5373
g3
V\u70cf\u5c3c\u5361\u4e9e
p5374
sg5
V\u52de\u52d5\u8005\u9280\u884c
p5375
sg7
V1.75
p5376
sg9
V1.35
p5377
sg10
V1.75
p5378
sg12
V115
p5379
sg14
V142
p5380
sg16
V2.45
p5381
sg17
V1.75
p5382
sg19
V26
p5383
sg20
V1.75
p5384
sg22
V160.5
p5385
sg24
S'76'
p5386
sg26
V+4.5
p5387
sg28
V79
p5388
sg29
g5367
sg31
V147
p5389
sg33
S'74'
p5390
sg35
V57
p5391
sg37
S'359'
p5392
sg39
V-4.5
p5393
sa(dp5394
g3
V\u8499\u5df4\u65af
p5395
sg5
V\u5927\u52a0\u90a3\u5229
p5396
sg7
V1.75
p5397
sg9
V2.05
p5398
sg10
V1.75
p5399
sg12
V121
p5400
sg14
V189
p5401
sg16
V1.5
p5402
sg17
V1.75
p5403
sg19
V83
p5404
sg20
V1.75
p5405
sg22
V149.5
p5406
sg24
S'80'
p5407
sg26
V-2.5
p5408
sg28
V30
p5409
sg29
S'20150201'
p5410
sg31
V94
p5411
sg33
S'68'
p5412
sg35
V71
p5413
sg37
S'350'
p5414
sg39
V+2.5
p5415
sa(dp5416
g3
V\u7562\u723e\u5305
p5417
sg5
V\u5b89\u591a\u62c9
p5418
sg7
V1.75
p5419
sg9
V
sg10
V1.75
p5420
sg12
V15
p5421
sg14
V28
p5422
sg16
V
sg17
V1.75
p5423
sg19
S''
sg20
V1.75
p5424
sg22
V148.5
p5425
sg24
S'84'
p5426
sg26
V+11.5
p5427
sg28
S''
sg29
g5410
sg31
V64
p5428
sg33
S'72'
p5429
sg35
V34
p5430
sg37
S'351'
p5431
sg39
V-11.5
p5432
sa(dp5433
g3
V\u85a9\u62c9\u6208\u85a9
p5434
sg5
V\u52a0\u90a3\u5229\u65af
p5435
sg7
V1.75
p5436
sg9
V1.25
p5437
sg10
V1.75
p5438
sg12
V40
p5439
sg14
V33
p5440
sg16
V2.85
p5441
sg17
V1.75
p5442
sg19
V2
sg20
V1.75
p5443
sg22
V151.5
p5444
sg24
S'72'
p5445
sg26
V+6.5
p5446
sg28
V44
p5447
sg29
g5410
sg31
V66
p5448
sg33
S'83'
p5449
sg35
V18
p5450
sg37
S'352'
p5451
sg39
V-6.5
p5452
sa(dp5453
g3
V\u8cfd\u7dad\u4e9e
p5454
sg5
V\u74e6\u502b\u897f\u4e9e
p5455
sg7
V1.75
p5456
sg9
V3.1
p5457
sg10
V1.75
p5458
sg12
V25
p5459
sg14
V61
p5460
sg16
V1.2
p5461
sg17
V1.75
p5462
sg19
V38
p5463
sg20
V1.75
p5464
sg22
V155.5
p5465
sg24
S'79'
p5466
sg26
V-7.5
p5467
sg28
V3
sg29
g5410
sg31
V40
p5468
sg33
S'72'
p5469
sg35
V26
p5470
sg37
S'354'
p5471
sg39
V+7.5
p5472
sa(dp5473
g3
V\u5df4\u585e\u9686\u7d0d
p5474
sg5
V\u66fc\u96f7\u85a9
p5475
sg7
V1.75
p5476
sg9
V
sg10
V1.75
p5477
sg12
V26
p5478
sg14
V42
p5479
sg16
V
sg17
V1.75
p5480
sg19
S''
sg20
V1.75
p5481
sg22
V154.5
p5482
sg24
S'101'
p5483
sg26
V+17.5
p5484
sg28
S''
sg29
g5410
sg31
V73
p5485
sg33
S'53'
p5486
sg35
V25
p5487
sg37
S'355'
p5488
sg39
V-17.5
p5489
sa(dp5490
g3
V\u7a46\u723e\u897f\u4e9e
p5491
sg5
V\u8c50\u62c9\u592b\u62c9\u9054
p5492
sg7
V1.75
p5493
sg9
V1.15
p5494
sg10
V1.75
p5495
sg12
V24
p5496
sg14
V38
p5497
sg16
V3.5
p5498
sg17
V1.75
p5499
sg19
V3
sg20
V1.75
p5500
sg22
V152.5
p5501
sg24
S'82'
p5502
sg26
V+8.5
p5503
sg28
V37
p5504
sg29
g5410
sg31
V43
p5505
sg33
S'69'
p5506
sg35
V19
p5507
sg37
S'356'
p5508
sg39
V-8.5
p5509
sa(dp5510
g3
V\u7687\u5bb6\u99ac\u5fb7\u91cc
p5511
sg5
V\u8056\u585e\u5df4\u65af\u63d0\u5b89
p5512
sg7
V1.75
p5513
sg9
V
sg10
V1.75
p5514
sg12
V35
p5515
sg14
V33
p5516
sg16
V
sg17
V1.75
p5517
sg19
S''
sg20
V1.75
p5518
sg22
V156.5
p5519
sg24
S'86'
p5520
sg26
V+17.5
p5521
sg28
S''
sg29
g5410
sg31
V72
p5522
sg33
S'70'
p5523
sg35
V25
p5524
sg37
S'357'
p5525
sg39
V-17.5
p5526
sa(dp5527
g3
V\u8056\u585e\u5df4\u65af\u63d0\u5b89
p5528
sg5
V\u963f\u745f\u6cd5\u5b78\u751f
p5529
sg7
V1.75
p5530
sg9
V1.45
p5531
sg10
V1.75
p5532
sg12
V84
p5533
sg14
V82
p5534
sg16
V2.15
p5535
sg17
V1.75
p5536
sg19
V21
p5537
sg20
V1.75
p5538
sg22
V139.5
p5539
sg24
S'76'
p5540
sg26
V+3.5
p5541
sg28
V86
p5542
sg29
S'20150126'
p5543
sg31
V189
p5544
sg33
S'82'
p5545
sg35
V92
p5546
sg37
S'347'
p5547
sg39
V-3.5
p5548
sa(dp5549
g3
V\u74e6\u502b\u897f\u4e9e
p5550
sg5
V\u7a46\u723e\u897f\u4e9e
p5551
sg7
V1.75
p5552
sg9
V
sg10
V1.75
p5553
sg12
V82
p5554
sg14
V110
p5555
sg16
V
sg17
V1.75
p5556
sg19
S''
sg20
V1.75
p5557
sg22
V155.5
p5558
sg24
S'81'
p5559
sg26
V+12.5
p5560
sg28
S''
sg29
S'20150125'
p5561
sg31
V152
p5562
sg33
S'63'
p5563
sg35
V50
p5564
sg37
S'339'
p5565
sg39
V-12.5
p5566
sa(dp5567
g3
V\u66fc\u96f7\u85a9
p5568
sg5
V\u8499\u5df4\u65af
p5569
sg7
V1.65
p5570
sg9
V1.7
p5571
sg10
V1.75
p5572
sg12
V54
p5573
sg14
V103
p5574
sg16
V1.8
p5575
sg17
V1.85
p5576
sg19
V48
p5577
sg20
V1.75
p5578
sg22
V146.5
p5579
sg24
S'78'
p5580
sg26
V+1.5
p5581
sg28
V52
p5582
sg29
g5561
sg31
V142
p5583
sg33
S'59'
p5584
sg35
V81
p5585
sg37
S'340'
p5586
sg39
V-1.5
p5587
sa(dp5588
g3
V\u5b89\u591a\u62c9
p5589
sg5
V\u70cf\u5c3c\u5361\u4e9e
p5590
sg7
V1.75
p5591
sg9
V2.85
p5592
sg10
V1.75
p5593
sg12
V78
p5594
sg14
V189
p5595
sg16
V1.25
p5596
sg17
V1.75
p5597
sg19
V84
p5598
sg20
V1.75
p5599
sg22
V149.5
p5600
sg24
S'74'
p5601
sg26
V-6.5
p5602
sg28
V10
p5603
sg29
g5561
sg31
V78
p5604
sg33
S'77'
p5605
sg35
V59
p5606
sg37
S'341'
p5607
sg39
V+6.5
p5608
sa(dp5609
g3
V\u8c50\u62c9\u592b\u62c9\u9054
p5610
sg5
V\u7562\u723e\u5305
p5611
sg7
V1.75
p5612
sg9
V2.45
p5613
sg10
V1.75
p5614
sg12
V27
p5615
sg14
V66
p5616
sg16
V1.35
p5617
sg17
V1.75
p5618
sg19
V33
p5619
sg20
V1.75
p5620
sg22
V150.5
p5621
sg24
S'85'
p5622
sg26
V-4.5
p5623
sg28
V13
p5624
sg29
g5561
sg31
V40
p5625
sg33
S'91'
p5626
sg35
V20
p5627
sg37
S'342'
p5628
sg39
V+4.5
p5629
sa(dp5630
g3
V\u5c24\u6587\u5716\u7279
p5631
sg5
V\u85a9\u62c9\u6208\u85a9
p5632
sg7
V1.75
p5633
sg9
V1.3
p5634
sg10
V1.75
p5635
sg12
V22
p5636
sg14
V38
p5637
sg16
V2.6
p5638
sg17
V1.75
p5639
sg19
V3
sg20
V1.75
p5640
sg22
V153.5
p5641
sg24
S'73'
p5642
sg26
V+5.5
p5643
sg28
V43
p5644
sg29
g5561
sg31
V66
p5645
sg33
S'67'
p5646
sg35
V18
p5647
sg37
S'343'
p5648
sg39
V-5.5
p5649
sa(dp5650
g3
V\u52de\u52d5\u8005\u9280\u884c
p5651
sg5
V\u5df4\u585e\u9686\u7d0d
p5652
sg7
V1.75
p5653
sg9
V2.6
p5654
sg10
V1.75
p5655
sg12
V49
p5656
sg14
V69
p5657
sg16
V1.3
p5658
sg17
V1.75
p5659
sg19
V46
p5660
sg20
V1.75
p5661
sg22
V158.5
p5662
sg24
S'103'
p5663
sg26
V-5.5
p5664
sg28
V3
sg29
g5561
sg31
V48
p5665
sg33
S'94'
p5666
sg35
V14
p5667
sg37
S'344'
p5668
sg39
V+5.5
p5669
sa(dp5670
g3
V\u5927\u52a0\u90a3\u5229
p5671
sg5
V\u7687\u5bb6\u99ac\u5fb7\u91cc
p5672
sg7
V1.75
p5673
sg9
V2.85
p5674
sg10
V1.75
p5675
sg12
V22
p5676
sg14
V67
p5677
sg16
V1.25
p5678
sg17
V1.75
p5679
sg19
V45
p5680
sg20
V1.75
p5681
sg22
V157.5
p5682
sg24
S'80'
p5683
sg26
V-6.5
p5684
sg28
V4
sg29
g5561
sg31
V42
p5685
sg33
S'88'
p5686
sg35
V30
p5687
sg37
S'345'
p5688
sg39
V+6.5
p5689
sa(dp5690
g3
V\u52a0\u90a3\u5229\u65af
p5691
sg5
V\u8cfd\u7dad\u4e9e
p5692
sg7
V1.75
p5693
sg9
V1.2
p5694
sg10
V1.75
p5695
sg12
V22
p5696
sg14
V38
p5697
sg16
V3.1
p5698
sg17
V1.75
p5699
sg19
V2
sg20
V1.75
p5700
sg22
V153.5
p5701
sg24
S'82'
p5702
sg26
V+7.5
p5703
sg28
V39
p5704
sg29
g5561
sg31
V45
p5705
sg33
S'61'
p5706
sg35
V23
p5707
sg37
S'346'
p5708
sg39
V-7.5
p5709
sa(dp5710
g3
V\u52de\u52d5\u8005\u9280\u884c
p5711
sg5
V\u8499\u5df4\u65af
p5712
sg7
V1.75
p5713
sg9
V
sg10
V1.75
p5714
sg12
V60
p5715
sg14
V96
p5716
sg16
V
sg17
V1.75
p5717
sg19
S''
sg20
V1.75
p5718
sg22
V155.5
p5719
sg24
S'85'
p5720
sg26
V+10.5
p5721
sg28
S''
sg29
S'20150119'
p5722
sg31
V175
p5723
sg33
S'77'
p5724
sg35
V87
p5725
sg37
S'356'
p5726
sg39
V-10.5
p5727
sa(dp5728
g3
V\u70cf\u5c3c\u5361\u4e9e
p5729
sg5
V\u7562\u723e\u5305
p5730
sg7
V1.75
p5731
sg9
V1.2
p5732
sg10
V1.75
p5733
sg12
V74
p5734
sg14
V90
p5735
sg16
V3.1
p5736
sg17
V1.75
p5737
sg19
V10
p5738
sg20
V1.75
p5739
sg22
V150.5
p5740
sg24
S'86'
p5741
sg26
V+7.5
p5742
sg28
V74
p5743
sg29
g5722
sg31
V191
p5744
sg33
S'74'
p5745
sg35
V65
p5746
sg37
S'357'
p5747
sg39
V-7.5
p5748
sa(dp5749
g3
V\u66fc\u96f7\u85a9
p5750
sg5
V\u7687\u5bb6\u99ac\u5fb7\u91cc
p5751
sg7
V1.75
p5752
sg9
V
sg10
V1.75
p5753
sg12
V98
p5754
sg14
V195
p5755
sg16
V
sg17
V1.75
p5756
sg19
S''
sg20
V1.75
p5757
sg22
V160.5
p5758
sg24
S'66'
p5759
sg26
V-13.5
p5760
sg28
S''
sg29
g5722
sg31
V85
p5761
sg33
S'83'
p5762
sg35
V73
p5763
sg37
S'359'
p5764
sg39
V+13.5
p5765
sa(dp5766
g3
V\u74e6\u502b\u897f\u4e9e
p5767
sg5
V\u8c50\u62c9\u592b\u62c9\u9054
p5768
sg7
V1.75
p5769
sg9
V
sg10
V1.75
p5770
sg12
V90
p5771
sg14
V121
p5772
sg16
V
sg17
V1.75
p5773
sg19
S''
sg20
V1.75
p5774
sg22
V153.5
p5775
sg24
S'89'
p5776
sg26
V+14.5
p5777
sg28
S''
sg29
S'20150118'
p5778
sg31
V168
p5779
sg33
S'76'
p5780
sg35
V69
p5781
sg37
S'351'
p5782
sg39
V-14.5
p5783
sa(dp5784
g3
V\u5c24\u6587\u5716\u7279
p5785
sg5
V\u8cfd\u7dad\u4e9e
p5786
sg7
V1.75
p5787
sg9
V
sg10
V1.75
p5788
sg12
V129
p5789
sg14
V128
p5790
sg16
V
sg17
V1.75
p5791
sg19
S''
sg20
V1.75
p5792
sg22
V158.5
p5793
sg24
S'75'
p5794
sg26
V+12.5
p5795
sg28
S''
sg29
g5778
sg31
V157
p5796
sg33
S'64'
p5797
sg35
V59
p5798
sg37
S'352'
p5799
sg39
V-12.5
p5800
sa(dp5801
g3
V\u8056\u585e\u5df4\u65af\u63d0\u5b89
p5802
sg5
V\u85a9\u62c9\u6208\u85a9
p5803
sg7
V1.75
p5804
sg9
V2.05
p5805
sg10
V1.75
p5806
sg12
V30
p5807
sg14
V67
p5808
sg16
V1.5
p5809
sg17
V1.75
p5810
sg19
V40
p5811
sg20
V1.75
p5812
sg22
V143.5
p5813
sg24
S'61'
p5814
sg26
V-2.5
p5815
sg28
V12
p5816
sg29
g5778
sg31
V49
p5817
sg33
S'76'
p5818
sg35
V29
p5819
sg37
S'358'
p5820
sg39
V+2.5
p5821
sa(dp5822
g3
V\u5b89\u591a\u62c9
p5823
sg5
V\u5df4\u585e\u9686\u7d0d
p5824
sg7
V1.75
p5825
sg9
V3.5
p5826
sg10
V1.75
p5827
sg12
V34
p5828
sg14
V78
p5829
sg16
V1.15
p5830
sg17
V1.75
p5831
sg19
V9
sg20
V1.75
p5832
sg22
V151.5
p5833
sg24
S'56'
p5834
sg26
V-8.5
p5835
sg28
V2
sg29
g5778
sg31
V61
p5836
sg33
S'71'
p5837
sg35
V28
p5838
sg37
S'350'
p5839
sg39
V+8.5
p5840
sa(dp5841
g3
V\u5927\u52a0\u90a3\u5229
p5842
sg5
V\u963f\u745f\u6cd5\u5b78\u751f
p5843
sg7
V1.75
p5844
sg9
V
sg10
V1.75
p5845
sg12
V27
p5846
sg14
V50
p5847
sg16
V
sg17
V1.75
p5848
sg19
S''
sg20
V1.75
p5849
sg22
V146.5
p5850
sg24
S'79'
p5851
sg26
V+10.5
p5852
sg28
S''
sg29
g5778
sg31
V66
p5853
sg33
S'63'
p5854
sg35
V37
p5855
sg37
S'354'
p5856
sg39
V-10.5
p5857
sa(dp5858
g3
V\u52a0\u90a3\u5229\u65af
p5859
sg5
V\u7a46\u723e\u897f\u4e9e
p5860
sg7
V1.75
p5861
sg9
V1.6
p5862
sg10
V1.75
p5863
sg12
V29
p5864
sg14
V40
p5865
sg16
V1.9
p5866
sg17
V1.75
p5867
sg19
V14
p5868
sg20
V1.75
p5869
sg22
V152.5
p5870
sg24
S'78'
p5871
sg26
V+1.5
p5872
sg28
V39
p5873
sg29
g5778
sg31
V87
p5874
sg33
S'72'
p5875
sg35
V24
p5876
sg37
S'355'
p5877
sg39
V-1.5
p5878
sa(dp5879
g3
V\u7687\u5bb6\u99ac\u5fb7\u91cc
p5880
sg5
V\u52de\u52d5\u8005\u9280\u884c
p5881
sg7
V1.75
p5882
sg9
V
sg10
V1.75
p5883
sg12
V117
p5884
sg14
V102
p5885
sg16
V
sg17
V1.75
p5886
sg19
S''
sg20
V1.75
p5887
sg22
V168.5
p5888
sg24
S'75'
p5889
sg26
V+12.5
p5890
sg28
S''
sg29
S'20150112'
p5891
sg31
V173
p5892
sg33
S'74'
p5893
sg35
V78
p5894
sg37
S'312'
p5895
sg39
V-12.5
p5896
sa(dp5897
g3
V\u8c50\u62c9\u592b\u62c9\u9054
p5898
sg5
V\u52a0\u90a3\u5229\u65af
p5899
sg7
V1.75
p5900
sg9
V1.45
p5901
sg10
V1.75
p5902
sg12
V83
p5903
sg14
V122
p5904
sg16
V2.15
p5905
sg17
V1.75
p5906
sg19
V28
p5907
sg20
V1.75
p5908
sg22
V154.5
p5909
sg24
S'83'
p5910
sg26
V+3.5
p5911
sg28
V70
p5912
sg29
g5891
sg31
V145
p5913
sg33
S'66'
p5914
sg35
V70
p5915
sg37
S'313'
p5916
sg39
V-3.5
p5917
sa(dp5918
g3
V\u8499\u5df4\u65af
p5919
sg5
V\u5b89\u591a\u62c9
p5920
sg7
V1.75
p5921
sg9
V1.25
p5922
sg10
V1.75
p5923
sg12
V88
p5924
sg14
V89
p5925
sg16
V2.85
p5926
sg17
V1.75
p5927
sg19
V13
p5928
sg20
V1.75
p5929
sg22
V143.5
p5930
sg24
S'78'
p5931
sg26
V+6.5
p5932
sg28
V99
p5933
sg29
S'20150111'
p5934
sg31
V187
p5935
sg33
S'73'
p5936
sg35
V100
p5937
sg37
S'300'
p5938
sg39
V-6.5
p5939
sa(dp5940
g3
V\u7562\u723e\u5305
p5941
sg5
V\u74e6\u502b\u897f\u4e9e
p5942
sg7
V1.75
p5943
sg9
V1.9
p5944
sg10
V1.75
p5945
sg12
V30
p5946
sg14
V55
p5947
sg16
V1.6
p5948
sg17
V1.75
p5949
sg19
V27
p5950
sg20
V1.75
p5951
sg22
V151.5
p5952
sg24
S'82'
p5953
sg26
V-1.5
p5954
sg28
V38
p5955
sg29
g5934
sg31
V80
p5956
sg33
S'80'
p5957
sg35
V24
p5958
sg37
S'305'
p5959
sg39
V+1.5
p5960
sa(dp5961
g3
V\u85a9\u62c9\u6208\u85a9
p5962
sg5
V\u5927\u52a0\u90a3\u5229
p5963
sg7
V1.75
p5964
sg9
V1.35
p5965
sg10
V1.75
p5966
sg12
V38
p5967
sg14
V37
p5968
sg16
V2.45
p5969
sg17
V1.75
p5970
sg19
V8
sg20
V1.75
p5971
sg22
V152.5
p5972
sg24
S'78'
p5973
sg26
V+4.5
p5974
sg28
V42
p5975
sg29
g5934
sg31
V65
p5976
sg33
S'102'
p5977
sg35
V14
p5978
sg37
S'306'
p5979
sg39
V-4.5
p5980
sa(dp5981
g3
V\u5df4\u585e\u9686\u7d0d
p5982
sg5
V\u70cf\u5c3c\u5361\u4e9e
p5983
sg7
V1.75
p5984
sg9
V1.2
p5985
sg10
V1.75
p5986
sg12
V29
p5987
sg14
V27
p5988
sg16
V3.1
p5989
sg17
V1.75
p5990
sg19
V1
sg20
V1.75
p5991
sg22
V150.5
p5992
sg24
S'114'
p5993
sg26
V+7.5
p5994
sg28
V56
p5995
sg29
g5934
sg31
V87
p5996
sg33
S'110'
p5997
sg35
V24
p5998
sg37
S'308'
p5999
sg39
V-7.5
p6000
sa(dp6001
g3
V\u963f\u745f\u6cd5\u5b78\u751f
p6002
sg5
V\u66fc\u96f7\u85a9
p6003
sg7
V1.75
p6004
sg9
V1.2
p6005
sg10
V1.75
p6006
sg12
V42
p6007
sg14
V34
p6008
sg16
V3.1
p6009
sg17
V1.75
p6010
sg19
V7
sg20
V1.75
p6011
sg22
V146.5
p6012
sg24
S'78'
p6013
sg26
V+7.5
p6014
sg28
V45
p6015
sg29
g5934
sg31
V59
p6016
sg33
S'73'
p6017
sg35
V15
p6018
sg37
S'309'
p6019
sg39
V-7.5
p6020
sa(dp6021
g3
V\u7a46\u723e\u897f\u4e9e
p6022
sg5
V\u5c24\u6587\u5716\u7279
p6023
sg7
V1.75
p6024
sg9
V1.6
p6025
sg10
V1.75
p6026
sg12
V25
p6027
sg14
V68
p6028
sg16
V1.9
p6029
sg17
V1.75
p6030
sg19
V38
p6031
sg20
V1.75
p6032
sg22
V158.5
p6033
sg24
S'70'
p6034
sg26
V+1.5
p6035
sg28
V19
p6036
sg29
g5934
sg31
V42
p6037
sg33
S'77'
p6038
sg35
V25
p6039
sg37
S'310'
p6040
sg39
V-1.5
p6041
sa(dp6042
g3
V\u8cfd\u7dad\u4e9e
p6043
sg5
V\u8056\u585e\u5df4\u65af\u63d0\u5b89
p6044
sg7
V1.75
p6045
sg9
V1.5
p6046
sg10
V1.75
p6047
sg12
V25
p6048
sg14
V31
p6049
sg16
V2.05
p6050
sg17
V1.75
p6051
sg19
V14
p6052
sg20
V1.75
p6053
sg22
V145.5
p6054
sg24
S'61'
p6055
sg26
V+2.5
p6056
sg28
V38
p6057
sg29
g5934
sg31
V68
p6058
sg33
S'76'
p6059
sg35
V34
p6060
sg37
S'311'
p6061
sg39
V-2.5
p6062
sa(dp6063
g3
V\u963f\u745f\u6cd5\u5b78\u751f
p6064
sg5
V\u5b89\u591a\u62c9
p6065
sg7
V1.75
p6066
sg9
V1.25
p6067
sg10
V1.75
p6068
sg12
V93
p6069
sg14
V126
p6070
sg16
V2.85
p6071
sg17
V1.75
p6072
sg19
V16
p6073
sg20
V1.75
p6074
sg22
V149.5
p6075
sg24
S'58'
p6076
sg26
V+6.5
p6077
sg28
V91
p6078
sg29
S'20150108'
p6079
sg31
V184
p6080
sg33
S'55'
p6081
sg35
V104
p6082
sg37
S'308'
p6083
sg39
V-6.5
p6084
sa(dp6085
g3
V\u70cf\u5c3c\u5361\u4e9e
p6086
sg5
V\u8499\u5df4\u65af
p6087
sg7
V1.75
p6088
sg9
V
sg10
V1.75
p6089
sg12
V70
p6090
sg14
V75
p6091
sg16
V
sg17
V1.75
p6092
sg19
S''
sg20
V1.75
p6093
sg22
V146.5
p6094
sg24
S'80'
p6095
sg26
V+12.5
p6096
sg28
S''
sg29
S'20150105'
p6097
sg31
V146
p6098
sg33
S'69'
p6099
sg35
V59
p6100
sg37
S'341'
p6101
sg39
V-12.5
p6102
sa(dp6103
g3
V\u7562\u723e\u5305
p6104
sg5
V\u5df4\u585e\u9686\u7d0d
p6105
sg7
V1.75
p6106
sg9
V2.85
p6107
sg10
V1.75
p6108
sg12
V73
p6109
sg14
V164
p6110
sg16
V1.25
p6111
sg17
V1.75
p6112
sg19
V72
p6113
sg20
V1.75
p6114
sg22
V152.5
p6115
sg24
S'73'
p6116
sg26
V-6.5
p6117
sg28
V11
p6118
sg29
g6097
sg31
V100
p6119
sg33
S'67'
p6120
sg35
V46
p6121
sg37
S'347'
p6122
sg39
V+6.5
p6123
sa(dp6124
g3
V\u52de\u52d5\u8005\u9280\u884c
p6125
sg5
V\u963f\u745f\u6cd5\u5b78\u751f
p6126
sg7
V1.75
p6127
sg9
V1.1
p6128
sg10
V1.75
p6129
sg12
V66
p6130
sg14
V77
p6131
sg16
V4
sg17
V1.75
p6132
sg19
V4
sg20
V1.75
p6133
sg22
V154.5
p6134
sg24
S'94'
p6135
sg26
V+9.5
p6136
sg28
V75
p6137
sg29
g6097
sg31
V154
p6138
sg33
S'59'
p6139
sg35
V46
p6140
sg37
S'345'
p6141
sg39
V-9.5
p6142
sa(dp6143
g3
V\u5b89\u591a\u62c9
p6144
sg5
V\u7687\u5bb6\u99ac\u5fb7\u91cc
p6145
sg7
V1.75
p6146
sg9
V
sg10
V1.75
p6147
sg12
V94
p6148
sg14
V153
p6149
sg16
V
sg17
V1.75
p6150
sg19
S''
sg20
V1.75
p6151
sg22
V157.5
p6152
sg24
S'70'
p6153
sg26
V-11.5
p6154
sg28
S''
sg29
g6097
sg31
V77
p6155
sg33
S'79'
p6156
sg35
V38
p6157
sg37
S'339'
p6158
sg39
V+11.5
p6159
sa(dp6160
g3
V\u74e6\u502b\u897f\u4e9e
p6161
sg5
V\u52a0\u90a3\u5229\u65af
p6162
sg7
V1.75
p6163
sg9
V
sg10
V1.75
p6164
sg12
V140
p6165
sg14
V96
p6166
sg16
V
sg17
V1.75
p6167
sg19
S''
sg20
V1.75
p6168
sg22
V157.5
p6169
sg24
S'98'
p6170
sg26
V+12.5
p6171
sg28
S''
sg29
S'20150104'
p6172
sg31
V172
p6173
sg33
S'80'
p6174
sg35
V79
p6175
sg37
S'342'
p6176
sg39
V-12.5
p6177
sa(dp6178
g3
V\u8056\u585e\u5df4\u65af\u63d0\u5b89
p6179
sg5
V\u7a46\u723e\u897f\u4e9e
p6180
sg7
V1.75
p6181
sg9
V1.5
p6182
sg10
V1.75
p6183
sg12
V22
p6184
sg14
V37
p6185
sg16
V2.05
p6186
sg17
V1.75
p6187
sg19
V8
sg20
V1.75
p6188
sg22
V148.5
p6189
sg24
S'67'
p6190
sg26
V+2.5
p6191
sg28
V32
p6192
sg29
g6172
sg31
V71
p6193
sg33
S'70'
p6194
sg35
V29
p6195
sg37
S'346'
p6196
sg39
V-2.5
p6197
sa(dp6198
g3
V\u66fc\u96f7\u85a9
p6199
sg5
V\u85a9\u62c9\u6208\u85a9
p6200
sg7
V1.75
p6201
sg9
V1.9
p6202
sg10
V1.75
p6203
sg12
V28
p6204
sg14
V80
p6205
sg16
V1.6
p6206
sg17
V1.75
p6207
sg19
V28
p6208
sg20
V1.75
p6209
sg22
V155.5
p6210
sg24
S'57'
p6211
sg26
V-1.5
p6212
sg28
V11
p6213
sg29
g6172
sg31
V37
p6214
sg33
S'73'
p6215
sg35
V20
p6216
sg37
S'343'
p6217
sg39
V+1.5
p6218
sa(dp6219
g3
V\u5c24\u6587\u5716\u7279
p6220
sg5
V\u8c50\u62c9\u592b\u62c9\u9054
p6221
sg7
V1.75
p6222
sg9
V
sg10
V1.75
p6223
sg12
V36
p6224
sg14
V42
p6225
sg16
V
sg17
V1.75
p6226
sg19
S''
sg20
V1.75
p6227
sg22
V157.5
p6228
sg24
S'85'
p6229
sg26
V+10.5
p6230
sg28
S''
sg29
g6172
sg31
V49
p6231
sg33
S'65'
p6232
sg35
V22
p6233
sg37
S'340'
p6234
sg39
V-10.5
p6235
sa(dp6236
g3
V\u5927\u52a0\u90a3\u5229
p6237
sg5
V\u8cfd\u7dad\u4e9e
p6238
sg7
V1.75
p6239
sg9
V
sg10
V1.75
p6240
sg12
V43
p6241
sg14
V48
p6242
sg16
V
sg17
V1.75
p6243
sg19
S''
sg20
V1.75
p6244
sg22
V151.5
p6245
sg24
S'71'
p6246
sg26
V+14.5
p6247
sg28
S''
sg29
g6172
sg31
V31
p6248
sg33
S'70'
p6249
sg35
V15
p6250
sg37
S'344'
p6251
sg39
V-14.5
p6252
sa(dp6253
g3
V\u74e6\u502b\u897f\u4e9e
p6254
sg5
V\u5c24\u6587\u5716\u7279
p6255
sg7
V1.75
p6256
sg9
V1.2
p6257
sg10
V1.75
p6258
sg12
V61
p6259
sg14
V93
p6260
sg16
V3.1
p6261
sg17
V1.75
p6262
sg19
V13
p6263
sg20
V1.75
p6264
sg22
V158.5
p6265
sg24
S'83'
p6266
sg26
V+7.5
p6267
sg28
V58
p6268
sg29
S'20141231'
p6269
sg31
V120
p6270
sg33
S'66'
p6271
sg35
V40
p6272
sg37
S'309'
p6273
sg39
V-7.5
p6274
sa(dp6275
g3
V\u8cfd\u7dad\u4e9e
p6276
sg5
V\u66fc\u96f7\u85a9
p6277
sg7
V1.75
p6278
sg9
V1.25
p6279
sg10
V1.75
p6280
sg12
V44
p6281
sg14
V87
p6282
sg16
V2.85
p6283
sg17
V1.75
p6284
sg19
V8
sg20
V1.75
p6285
sg22
V153.5
p6286
sg24
S'72'
p6287
sg26
V+6.5
p6288
sg28
V54
p6289
sg29
g6269
sg31
V97
p6290
sg33
S'80'
p6291
sg35
V35
p6292
sg37
S'310'
p6293
sg39
V-6.5
p6294
sa(dp6295
g3
V\u70cf\u5c3c\u5361\u4e9e
p6296
sg5
V\u7687\u5bb6\u99ac\u5fb7\u91cc
p6297
sg7
V1.75
p6298
sg9
V2.15
p6299
sg10
V1.75
p6300
sg12
V91
p6301
sg14
V157
p6302
sg16
V1.45
p6303
sg17
V1.75
p6304
sg19
V64
p6305
sg20
V1.75
p6306
sg22
V156.5
p6307
sg24
S'99'
p6308
sg26
V-3.5
p6309
sg28
V23
p6310
sg29
g6269
sg31
V76
p6311
sg33
S'92'
p6312
sg35
V36
p6313
sg37
S'311'
p6314
sg39
V+3.5
p6315
sa(dp6316
g3
V\u85a9\u62c9\u6208\u85a9
p6317
sg5
V\u52de\u52d5\u8005\u9280\u884c
p6318
sg7
V1.75
p6319
sg9
V1.5
p6320
sg10
V1.75
p6321
sg12
V65
p6322
sg14
V105
p6323
sg16
V2.05
p6324
sg17
V1.75
p6325
sg19
V33
p6326
sg20
V1.75
p6327
sg22
V159.5
p6328
sg24
S'105'
p6329
sg26
V+2.5
p6330
sg28
V39
p6331
sg29
g6269
sg31
V86
p6332
sg33
S'94'
p6333
sg35
V33
p6334
sg37
S'314'
p6335
sg39
V-2.5
p6336
sa(dp6337
g3
V\u8499\u5df4\u65af
p6338
sg5
V\u5df4\u585e\u9686\u7d0d
p6339
sg7
V1.75
p6340
sg9
V3.5
p6341
sg10
V1.75
p6342
sg12
V59
p6343
sg14
V147
p6344
sg16
V1.15
p6345
sg17
V1.75
p6346
sg19
V71
p6347
sg20
V1.75
p6348
sg22
V151.5
p6349
sg24
S'79'
p6350
sg26
V-8.5
p6351
sg28
V8
sg29
g6269
sg31
V60
p6352
sg33
S'67'
p6353
sg35
V38
p6354
sg37
S'323'
p6355
sg39
V+8.5
p6356
sa(dp6357
g3
V\u8c50\u62c9\u592b\u62c9\u9054
p6358
sg5
V\u8056\u585e\u5df4\u65af\u63d0\u5b89
p6359
sg7
V1.75
p6360
sg9
V1.35
p6361
sg10
V1.75
p6362
sg12
V37
p6363
sg14
V45
p6364
sg16
V2.45
p6365
sg17
V1.75
p6366
sg19
V11
p6367
sg20
V1.75
p6368
sg22
V145.5
p6369
sg24
S'65'
p6370
sg26
V+4.5
p6371
sg28
V44
p6372
sg29
g6269
sg31
V87
p6373
sg33
S'76'
p6374
sg35
V33
p6375
sg37
S'321'
p6376
sg39
V-4.5
p6377
sa(dp6378
g3
V\u7a46\u723e\u897f\u4e9e
p6379
sg5
V\u5927\u52a0\u90a3\u5229
p6380
sg7
V1.75
p6381
sg9
V1.6
p6382
sg10
V1.75
p6383
sg12
V59
p6384
sg14
V103
p6385
sg16
V1.9
p6386
sg17
V1.75
p6387
sg19
V32
p6388
sg20
V1.75
p6389
sg22
V154.5
p6390
sg24
S'85'
p6391
sg26
V+1.5
p6392
sg28
V42
p6393
sg29
g6269
sg31
V77
p6394
sg33
S'89'
p6395
sg35
V36
p6396
sg37
S'322'
p6397
sg39
V-1.5
p6398
sa(dp6399
g3
V\u52a0\u90a3\u5229\u65af
p6400
sg5
V\u7562\u723e\u5305
p6401
sg7
V1.65
p6402
sg9
V1.7
p6403
sg10
V1.75
p6404
sg12
V40
p6405
sg14
V86
p6406
sg16
V1.8
p6407
sg17
V1.85
p6408
sg19
V36
p6409
sg20
V1.75
p6410
sg22
V153.5
p6411
sg24
S'68'
p6412
sg26
V+1.5
p6413
sg28
V33
p6414
sg29
g6269
sg31
V74
p6415
sg33
S'85'
p6416
sg35
V41
p6417
sg37
S'313'
p6418
sg39
V-1.5
p6419
sa(dp6420
g3
V\u52de\u52d5\u8005\u9280\u884c
p6421
sg5
V\u8cfd\u7dad\u4e9e
p6422
sg7
V1.75
p6423
sg9
V
sg10
V1.75
p6424
sg12
V74
p6425
sg14
V96
p6426
sg16
V
sg17
V1.75
p6427
sg19
S''
sg20
V1.75
p6428
sg22
V161.5
p6429
sg24
S'100'
p6430
sg26
V+11.5
p6431
sg28
S''
sg29
S'20141229'
p6432
sg31
V124
p6433
sg33
S'60'
p6434
sg35
V54
p6435
sg37
S'325'
p6436
sg39
V-11.5
p6437
sa(dp6438
g3
V\u5b89\u591a\u62c9
p6439
sg5
V\u85a9\u62c9\u6208\u85a9
p6440
sg7
V1.75
p6441
sg9
V1.9
p6442
sg10
V1.75
p6443
sg12
V70
p6444
sg14
V158
p6445
sg16
V1.6
p6446
sg17
V1.75
p6447
sg19
V76
p6448
sg20
V1.75
p6449
sg22
V150.5
p6450
sg24
S'72'
p6451
sg26
V-1.5
p6452
sg28
V26
p6453
sg29
g6432
sg31
V83
p6454
sg33
S'59'
p6455
sg35
V44
p6456
sg37
S'320'
p6457
sg39
V+1.5
p6458
sa(dp6459
g3
V\u5df4\u585e\u9686\u7d0d
p6460
sg5
V\u7687\u5bb6\u99ac\u5fb7\u91cc
p6461
sg7
V1.75
p6462
sg9
V1.45
p6463
sg10
V1.75
p6464
sg12
V99
p6465
sg14
V107
p6466
sg16
V2.15
p6467
sg17
V1.75
p6468
sg19
V24
p6469
sg20
V1.75
p6470
sg22
V161.5
p6471
sg24
S'76'
p6472
sg26
V+3.5
p6473
sg28
V71
p6474
sg29
g6432
sg31
V146
p6475
sg33
S'68'
p6476
sg35
V50
p6477
sg37
S'328'
p6478
sg39
V-3.5
p6479
sa(dp6480
g3
V\u8056\u585e\u5df4\u65af\u63d0\u5b89
p6481
sg5
V\u74e6\u502b\u897f\u4e9e
p6482
sg7
V1.75
p6483
sg9
V2.6
p6484
sg10
V1.75
p6485
sg12
V63
p6486
sg14
V191
p6487
sg16
V1.3
p6488
sg17
V1.75
p6489
sg19
V89
p6490
sg20
V1.75
p6491
sg22
V145.5
p6492
sg24
S'69'
p6493
sg26
V-5.5
p6494
sg28
V6
sg29
S'20141228'
p6495
sg31
V68
p6496
sg33
S'67'
p6497
sg35
V51
p6498
sg37
S'321'
p6499
sg39
V+5.5
p6500
sa(dp6501
g3
V\u5927\u52a0\u90a3\u5229
p6502
sg5
V\u8c50\u62c9\u592b\u62c9\u9054
p6503
sg7
V1.75
p6504
sg9
V1.15
p6505
sg10
V1.75
p6506
sg12
V64
p6507
sg14
V89
p6508
sg16
V3.5
p6509
sg17
V1.75
p6510
sg19
V14
p6511
sg20
V1.75
p6512
sg22
V148.5
p6513
sg24
S'88'
p6514
sg26
V+8.5
p6515
sg28
V82
p6516
sg29
g6495
sg31
V144
p6517
sg33
S'77'
p6518
sg35
V54
p6519
sg37
S'322'
p6520
sg39
V-8.5
p6521
sa(dp6522
g3
V\u70cf\u5c3c\u5361\u4e9e
p6523
sg5
V\u963f\u745f\u6cd5\u5b78\u751f
p6524
sg7
V1.75
p6525
sg9
V
sg10
V1.75
p6526
sg12
V73
p6527
sg14
V92
p6528
sg16
V
sg17
V1.75
p6529
sg19
S''
sg20
V1.75
p6530
sg22
V150.5
p6531
sg24
S'66'
p6532
sg26
V+10.5
p6533
sg28
S''
sg29
g6495
sg31
V138
p6534
sg33
S'62'
p6535
sg35
V59
p6536
sg37
S'324'
p6537
sg39
V-10.5
p6538
sa(dp6539
g3
V\u66fc\u96f7\u85a9
p6540
sg5
V\u7a46\u723e\u897f\u4e9e
p6541
sg7
V1.75
p6542
sg9
V2.05
p6543
sg10
V1.75
p6544
sg12
V96
p6545
sg14
V126
p6546
sg16
V1.5
p6547
sg17
V1.75
p6548
sg19
V63
p6549
sg20
V1.75
p6550
sg22
V154.5
p6551
sg24
S'80'
p6552
sg26
V-2.5
p6553
sg28
V30
p6554
sg29
g6495
sg31
V101
p6555
sg33
S'68'
p6556
sg35
V41
p6557
sg37
S'323'
p6558
sg39
V+2.5
p6559
sa(dp6560
g3
V\u5c24\u6587\u5716\u7279
p6561
sg5
V\u52a0\u90a3\u5229\u65af
p6562
sg7
V1.75
p6563
sg9
V1.25
p6564
sg10
V1.75
p6565
sg12
V21
p6566
sg14
V28
p6567
sg16
V2.85
p6568
sg17
V1.75
p6569
sg19
V0
sg20
V1.75
p6570
sg22
V155.5
p6571
sg24
S'88'
p6572
sg26
V+6.5
p6573
sg28
V30
p6574
sg29
g6495
sg31
V59
p6575
sg33
S'85'
p6576
sg35
V20
p6577
sg37
S'326'
p6578
sg39
V-6.5
p6579
sa(dp6580
g3
V\u7562\u723e\u5305
p6581
sg5
V\u8499\u5df4\u65af
p6582
sg7
V1.75
p6583
sg9
V1.15
p6584
sg10
V1.75
p6585
sg12
V27
p6586
sg14
V39
p6587
sg16
V3.5
p6588
sg17
V1.75
p6589
sg19
V0
sg20
V1.75
p6590
sg22
V150.5
p6591
sg24
S'70'
p6592
sg26
V+8.5
p6593
sg28
V5
sg29
g6495
sg31
V46
p6594
sg33
S'58'
p6595
sg35
V23
p6596
sg37
S'327'
p6597
sg39
V-8.5
p6598
sa(dp6599
g3
V\u963f\u745f\u6cd5\u5b78\u751f
p6600
sg5
V\u5df4\u585e\u9686\u7d0d
p6601
sg7
V1.75
p6602
sg9
V
sg10
V1.75
p6603
sg12
V124
p6604
sg14
V213
p6605
sg16
V
sg17
V1.75
p6606
sg19
S''
sg20
V1.75
p6607
sg22
V150.5
p6608
sg24
S'102'
p6609
sg26
V-10.5
p6610
sg28
S''
sg29
S'20141222'
p6611
sg31
V85
p6612
sg33
S'96'
p6613
sg35
V73
p6614
sg37
S'338'
p6615
sg39
V+10.5
p6616
sa(dp6617
g3
V\u8c50\u62c9\u592b\u62c9\u9054
p6618
sg5
V\u66fc\u96f7\u85a9
p6619
sg7
V1.75
p6620
sg9
V1.3
p6621
sg10
V1.75
p6622
sg12
V81
p6623
sg14
V73
p6624
sg16
V2.6
p6625
sg17
V1.75
p6626
sg19
V13
p6627
sg20
V1.75
p6628
sg22
V150.5
p6629
sg24
S'90'
p6630
sg26
V+5.5
p6631
sg28
V79
p6632
sg29
S'20141221'
p6633
sg31
V186
p6634
sg33
S'64'
p6635
sg35
V55
p6636
sg37
S'313'
p6637
sg39
V-5.5
p6638
sa(dp6639
g3
V\u85a9\u62c9\u6208\u85a9
p6640
sg5
V\u70cf\u5c3c\u5361\u4e9e
p6641
sg7
V1.75
p6642
sg9
V2.6
p6643
sg10
V1.75
p6644
sg12
V46
p6645
sg14
V113
p6646
sg16
V1.3
p6647
sg17
V1.75
p6648
sg19
V56
p6649
sg20
V1.75
p6650
sg22
V152.5
p6651
sg24
S'82'
p6652
sg26
V-5.5
p6653
sg28
V16
p6654
sg29
g6633
sg31
V81
p6655
sg33
S'76'
p6656
sg35
V60
p6657
sg37
S'315'
p6658
sg39
V+5.5
p6659
sa(dp6660
g3
V\u7687\u5bb6\u99ac\u5fb7\u91cc
p6661
sg5
V\u8499\u5df4\u65af
p6662
sg7
V1.75
p6663
sg9
V
sg10
V1.75
p6664
sg12
V57
p6665
sg14
V71
p6666
sg16
V
sg17
V1.75
p6667
sg19
S''
sg20
V1.75
p6668
sg22
V158.5
p6669
sg24
S'91'
p6670
sg26
V+16.5
p6671
sg28
S''
sg29
g6633
sg31
V112
p6672
sg33
S'73'
p6673
sg35
V48
p6674
sg37
S'317'
p6675
sg39
V-16.5
p6676
sa(dp6677
g3
V\u5c24\u6587\u5716\u7279
p6678
sg5
V\u7562\u723e\u5305
p6679
sg7
V1.75
p6680
sg9
V1.35
p6681
sg10
V1.75
p6682
sg12
V57
p6683
sg14
V72
p6684
sg16
V2.45
p6685
sg17
V1.75
p6686
sg19
V14
p6687
sg20
V1.75
p6688
sg22
V152.5
p6689
sg24
S'85'
p6690
sg26
V+4.5
p6691
sg28
V66
p6692
sg29
g6633
sg31
V126
p6693
sg33
S'79'
p6694
sg35
V34
p6695
sg37
S'336'
p6696
sg39
V-4.5
p6697
sa(dp6698
g3
V\u7a46\u723e\u897f\u4e9e
p6699
sg5
V\u52de\u52d5\u8005\u9280\u884c
p6700
sg7
V1.75
p6701
sg9
V2.15
p6702
sg10
V1.75
p6703
sg12
V66
p6704
sg14
V152
p6705
sg16
V1.45
p6706
sg17
V1.75
p6707
sg19
V70
p6708
sg20
V1.75
p6709
sg22
V159.5
p6710
sg24
S'93'
p6711
sg26
V-3.5
p6712
sg28
V17
p6713
sg29
g6633
sg31
V63
p6714
sg33
S'88'
p6715
sg35
V36
p6716
sg37
S'314'
p6717
sg39
V+3.5
p6718
sa(dp6719
g3
V\u8cfd\u7dad\u4e9e
p6720
sg5
V\u5b89\u591a\u62c9
p6721
sg7
V1.75
p6722
sg9
V
sg10
V1.75
p6723
sg12
V42
p6724
sg14
V62
p6725
sg16
V
sg17
V1.75
p6726
sg19
S''
sg20
V1.75
p6727
sg22
V155.5
p6728
sg24
S'57'
p6729
sg26
V+11.5
p6730
sg28
S''
sg29
g6633
sg31
V88
p6731
sg33
S'77'
p6732
sg35
V43
p6733
sg37
S'327'
p6734
sg39
V-11.5
p6735
sa(dp6736
g3
V\u74e6\u502b\u897f\u4e9e
p6737
sg5
V\u5927\u52a0\u90a3\u5229
p6738
sg7
V1.75
p6739
sg9
V1.15
p6740
sg10
V1.75
p6741
sg12
V52
p6742
sg14
V86
p6743
sg16
V3.5
p6744
sg17
V1.75
p6745
sg19
V7
sg20
V1.75
p6746
sg22
V148.5
p6747
sg24
S'101'
p6748
sg26
V+8.5
p6749
sg28
V75
p6750
sg29
g6633
sg31
V121
p6751
sg33
S'92'
p6752
sg35
V37
p6753
sg37
S'337'
p6754
sg39
V-8.5
p6755
sa(dp6756
g3
V\u52a0\u90a3\u5229\u65af
p6757
sg5
V\u8056\u585e\u5df4\u65af\u63d0\u5b89
p6758
sg7
V1.75
p6759
sg9
V1.3
p6760
sg10
V1.75
p6761
sg12
V44
p6762
sg14
V60
p6763
sg16
V2.6
p6764
sg17
V1.75
p6765
sg19
V10
p6766
sg20
V1.75
p6767
sg22
V145.5
p6768
sg24
S'77'
p6769
sg26
V+5.5
p6770
sg28
V59
p6771
sg29
g6633
sg31
V107
p6772
sg33
S'68'
p6773
sg35
V36
p6774
sg37
S'318'
p6775
sg39
V-5.5
p6776
sa(dp6777
g3
V\u70cf\u5c3c\u5361\u4e9e
p6778
sg5
V\u8cfd\u7dad\u4e9e
p6779
sg7
V1.75
p6780
sg9
V
sg10
V1.75
p6781
sg12
V68
p6782
sg14
V118
p6783
sg16
V
sg17
V1.75
p6784
sg19
S''
sg20
V1.75
p6785
sg22
V153.5
p6786
sg24
S'82'
p6787
sg26
V+13.5
p6788
sg28
S''
sg29
S'20141215'
p6789
sg31
V115
p6790
sg33
S'76'
p6791
sg35
V62
p6792
sg37
S'370'
p6793
sg39
V-13.5
p6794
sa(dp6795
g3
V\u7562\u723e\u5305
p6796
sg5
V\u7687\u5bb6\u99ac\u5fb7\u91cc
p6797
sg7
V1.75
p6798
sg9
V
sg10
V1.75
p6799
sg12
V106
p6800
sg14
V135
p6801
sg16
V
sg17
V1.75
p6802
sg19
S''
sg20
V1.75
p6803
sg22
V157.5
p6804
sg24
S'89'
p6805
sg26
V-10.5
p6806
sg28
S''
sg29
g6789
sg31
V106
p6807
sg33
S'79'
p6808
sg35
V51
p6809
sg37
S'373'
p6810
sg39
V+10.5
p6811
sa(dp6812
g3
V\u66fc\u96f7\u85a9
p6813
sg5
V\u74e6\u502b\u897f\u4e9e
p6814
sg7
V1.75
p6815
sg9
V3.5
p6816
sg10
V1.75
p6817
sg12
V93
p6818
sg14
V146
p6819
sg16
V1.15
p6820
sg17
V1.75
p6821
sg19
V74
p6822
sg20
V1.75
p6823
sg22
V151.5
p6824
sg24
S'78'
p6825
sg26
V-8.5
p6826
sg28
V13
p6827
sg29
g6789
sg31
V100
p6828
sg33
S'77'
p6829
sg35
V51
p6830
sg37
S'372'
p6831
sg39
V+8.5
p6832
sa(dp6833
g3
V\u8056\u585e\u5df4\u65af\u63d0\u5b89
p6834
sg5
V\u5c24\u6587\u5716\u7279
p6835
sg7
V1.75
p6836
sg9
V1.6
p6837
sg10
V1.75
p6838
sg12
V60
p6839
sg14
V141
p6840
sg16
V1.9
p6841
sg17
V1.75
p6842
sg19
V49
p6843
sg20
V1.75
p6844
sg22
V150.5
p6845
sg24
S'63'
p6846
sg26
V+1.5
p6847
sg28
V42
p6848
sg29
S'20141214'
p6849
sg31
V86
p6850
sg33
S'66'
p6851
sg35
V64
p6852
sg37
S'368'
p6853
sg39
V-1.5
p6854
sa(dp6855
g3
V\u8499\u5df4\u65af
p6856
sg5
V\u963f\u745f\u6cd5\u5b78\u751f
p6857
sg7
V1.75
p6858
sg9
V1.3
p6859
sg10
V1.75
p6860
sg12
V80
p6861
sg14
V88
p6862
sg16
V2.6
p6863
sg17
V1.75
p6864
sg19
V15
p6865
sg20
V1.75
p6866
sg22
V148.5
p6867
sg24
S'60'
p6868
sg26
V+5.5
p6869
sg28
V71
p6870
sg29
g6849
sg31
V146
p6871
sg33
S'59'
p6872
sg35
V57
p6873
sg37
S'366'
p6874
sg39
V-5.5
p6875
sa(dp6876
g3
V\u5b89\u591a\u62c9
p6877
sg5
V\u7a46\u723e\u897f\u4e9e
p6878
sg7
V1.75
p6879
sg9
V1.45
p6880
sg10
V1.75
p6881
sg12
V69
p6882
sg14
V81
p6883
sg16
V2.15
p6884
sg17
V1.75
p6885
sg19
V24
p6886
sg20
V1.75
p6887
sg22
V155.5
p6888
sg24
S'68'
p6889
sg26
V+3.5
p6890
sg28
V72
p6891
sg29
g6849
sg31
V152
p6892
sg33
S'74'
p6893
sg35
V50
p6894
sg37
S'367'
p6895
sg39
V-3.5
p6896
sa(dp6897
g3
V\u52de\u52d5\u8005\u9280\u884c
p6898
sg5
V\u8c50\u62c9\u592b\u62c9\u9054
p6899
sg7
V1.75
p6900
sg9
V
sg10
V1.75
p6901
sg12
V53
p6902
sg14
V74
p6903
sg16
V
sg17
V1.75
p6904
sg19
S''
sg20
V1.75
p6905
sg22
V154.5
p6906
sg24
S'77'
p6907
sg26
V+13.5
p6908
sg28
S''
sg29
g6849
sg31
V91
p6909
sg33
S'71'
p6910
sg35
V37
p6911
sg37
S'371'
p6912
sg39
V-13.5
p6913
sa(dp6914
g3
V\u5df4\u585e\u9686\u7d0d
p6915
sg5
V\u85a9\u62c9\u6208\u85a9
p6916
sg7
V1.75
p6917
sg9
V
sg10
V1.75
p6918
sg12
V68
p6919
sg14
V95
p6920
sg16
V
sg17
V1.75
p6921
sg19
S''
sg20
V1.75
p6922
sg22
V152.5
p6923
sg24
S'90'
p6924
sg26
V+14.5
p6925
sg28
S''
sg29
g6849
sg31
V89
p6926
sg33
S'67'
p6927
sg35
V43
p6928
sg37
S'374'
p6929
sg39
V-14.5
p6930
sa(dp6931
g3
V\u5927\u52a0\u90a3\u5229
p6932
sg5
V\u52a0\u90a3\u5229\u65af
p6933
sg7
V1.75
p6934
sg9
V1.3
p6935
sg10
V1.75
p6936
sg12
V59
p6937
sg14
V60
p6938
sg16
V2.6
p6939
sg17
V1.75
p6940
sg19
V9
sg20
V1.75
p6941
sg22
V149.5
p6942
sg24
S'79'
p6943
sg26
V+5.5
p6944
sg28
V64
p6945
sg29
g6849
sg31
V105
p6946
sg33
S'64'
p6947
sg35
V32
p6948
sg37
S'369'
p6949
sg39
V-5.5
p6950
sa(dp6951
g3
V\u8c50\u62c9\u592b\u62c9\u9054
p6952
sg5
V\u5b89\u591a\u62c9
p6953
sg7
V1.75
p6954
sg9
V1.45
p6955
sg10
V1.75
p6956
sg12
V114
p6957
sg14
V118
p6958
sg16
V2.15
p6959
sg17
V1.75
p6960
sg19
V39
p6961
sg20
V1.75
p6962
sg22
V150.5
p6963
sg24
S'88'
p6964
sg26
V+3.5
p6965
sg28
V68
p6966
sg29
S'20141209'
p6967
sg31
V166
p6968
sg33
S'65'
p6969
sg35
V79
p6970
sg37
S'368'
p6971
sg39
V-3.5
p6972
sa(dp6973
g3
V\u7a46\u723e\u897f\u4e9e
p6974
sg5
V\u70cf\u5c3c\u5361\u4e9e
p6975
sg7
V1.75
p6976
sg9
V2.6
p6977
sg10
V1.75
p6978
sg12
V133
p6979
sg14
V206
p6980
sg16
V1.3
p6981
sg17
V1.75
p6982
sg19
V106
p6983
sg20
V1.75
p6984
sg22
V148.5
p6985
sg24
S'86'
p6986
sg26
V-5.5
p6987
sg28
V16
p6988
sg29
g6967
sg31
V134
p6989
sg33
S'96'
p6990
sg35
V79
p6991
sg37
S'370'
p6992
sg39
V+5.5
p6993
sa(dp6994
g3
V\u963f\u745f\u6cd5\u5b78\u751f
p6995
sg5
V\u7687\u5bb6\u99ac\u5fb7\u91cc
p6996
sg7
V1.75
p6997
sg9
V
sg10
V1.75
p6998
sg12
V131
p6999
sg14
V207
p7000
sg16
V
sg17
V1.75
p7001
sg19
S''
sg20
V1.75
p7002
sg22
V158.5
p7003
sg24
S'89'
p7004
sg26
V-14.5
p7005
sg28
S''
sg29
S'20141208'
p7006
sg31
V94
p7007
sg33
S'84'
p7008
sg35
V69
p7009
sg37
S'373'
p7010
sg39
V+14.5
p7011
sa(dp7012
g3
V\u85a9\u62c9\u6208\u85a9
p7013
sg5
V\u8499\u5df4\u65af
p7014
sg7
V1.75
p7015
sg9
V1.25
p7016
sg10
V1.75
p7017
sg12
V45
p7018
sg14
V75
p7019
sg16
V2.85
p7020
sg17
V1.75
p7021
sg19
V10
p7022
sg20
V1.75
p7023
sg22
V148.5
p7024
sg24
S'82'
p7025
sg26
V+6.5
p7026
sg28
V85
p7027
sg29
S'20141207'
p7028
sg31
V166
p7029
sg33
S'74'
p7030
sg35
V62
p7031
sg37
S'375'
p7032
sg39
V-6.5
p7033
sa(dp7034
g3
V\u5c24\u6587\u5716\u7279
p7035
sg5
V\u5927\u52a0\u90a3\u5229
p7036
sg7
V1.75
p7037
sg9
V1.35
p7038
sg10
V1.75
p7039
sg12
V94
p7040
sg14
V91
p7041
sg16
V2.45
p7042
sg17
V1.75
p7043
sg19
V18
p7044
sg20
V1.75
p7045
sg22
V152.5
p7046
sg24
S'81'
p7047
sg26
V+4.5
p7048
sg28
V79
p7049
sg29
g7028
sg31
V163
p7050
sg33
S'79'
p7051
sg35
V53
p7052
sg37
S'369'
p7053
sg39
V-4.5
p7054
sa(dp7055
g3
V\u8056\u585e\u5df4\u65af\u63d0\u5b89
p7056
sg5
V\u7562\u723e\u5305
p7057
sg7
V1.75
p7058
sg9
V2.45
p7059
sg10
V1.75
p7060
sg12
V67
p7061
sg14
V171
p7062
sg16
V1.35
p7063
sg17
V1.75
p7064
sg19
V78
p7065
sg20
V1.75
p7066
sg22
V145.5
p7067
sg24
S'80'
p7068
sg26
V-4.5
p7069
sg28
V18
p7070
sg29
g7028
sg31
V87
p7071
sg33
S'67'
p7072
sg35
V58
p7073
sg37
S'374'
p7074
sg39
V+4.5
p7075
sa(dp7076
g3
V\u74e6\u502b\u897f\u4e9e
p7077
sg5
V\u52de\u52d5\u8005\u9280\u884c
p7078
sg7
V1.75
p7079
sg9
V1.35
p7080
sg10
V1.75
p7081
sg12
V60
p7082
sg14
V117
p7083
sg16
V2.45
p7084
sg17
V1.75
p7085
sg19
V23
p7086
sg20
V1.75
p7087
sg22
V154.5
p7088
sg24
S'85'
p7089
sg26
V+4.5
p7090
sg28
V56
p7091
sg29
g7028
sg31
V94
p7092
sg33
S'70'
p7093
sg35
V46
p7094
sg37
S'376'
p7095
sg39
V-4.5
p7096
sa(dp7097
g3
V\u8cfd\u7dad\u4e9e
p7098
sg5
V\u5df4\u585e\u9686\u7d0d
p7099
sg7
V1.75
p7100
sg9
V
sg10
V1.75
p7101
sg12
V67
p7102
sg14
V104
p7103
sg16
V
sg17
V1.75
p7104
sg19
S''
sg20
V1.75
p7105
sg22
V154.5
p7106
sg24
S'85'
p7107
sg26
V-15.5
p7108
sg28
S''
sg29
g7028
sg31
V82
p7109
sg33
S'74'
p7110
sg35
V51
p7111
sg37
S'371'
p7112
sg39
V+15.5
p7113
sa(dp7114
g3
V\u52a0\u90a3\u5229\u65af
p7115
sg5
V\u66fc\u96f7\u85a9
p7116
sg7
V1.75
p7117
sg9
V
sg10
V1.75
p7118
sg12
V58
p7119
sg14
V79
p7120
sg16
V
sg17
V1.75
p7121
sg19
S''
sg20
V1.75
p7122
sg22
V156.5
p7123
sg24
S'66'
p7124
sg26
V+11.5
p7125
sg28
S''
sg29
g7028
sg31
V91
p7126
sg33
S'62'
p7127
sg35
V44
p7128
sg37
S'372'
p7129
sg39
V-11.5
p7130
sa(dp7131
g3
V\u70cf\u5c3c\u5361\u4e9e
p7132
sg5
V\u8c50\u62c9\u592b\u62c9\u9054
p7133
sg7
V1.75
p7134
sg9
V
sg10
V1.75
p7135
sg12
V71
p7136
sg14
V96
p7137
sg16
V
sg17
V1.75
p7138
sg19
S''
sg20
V1.75
p7139
sg22
V148.5
p7140
sg24
S'72'
p7141
sg26
V+15.5
p7142
sg28
S''
sg29
S'20141201'
p7143
sg31
V114
p7144
sg33
S'63'
p7145
sg35
V50
p7146
sg37
S'355'
p7147
sg39
V-15.5
p7148
sa(dp7149
g3
V\u7687\u5bb6\u99ac\u5fb7\u91cc
p7150
sg5
V\u85a9\u62c9\u6208\u85a9
p7151
sg7
V1.75
p7152
sg9
V
sg10
V1.75
p7153
sg12
V82
p7154
sg14
V107
p7155
sg16
V
sg17
V1.75
p7156
sg19
S''
sg20
V1.75
p7157
sg22
V160.5
p7158
sg24
S'89'
p7159
sg26
V+15.5
p7160
sg28
S''
sg29
g7143
sg31
V124
p7161
sg33
S'71'
p7162
sg35
V50
p7163
sg37
S'356'
p7164
sg39
V-15.5
p7165
sa(dp7166
g3
V\u5b89\u591a\u62c9
p7167
sg5
V\u74e6\u502b\u897f\u4e9e
p7168
sg7
V1.75
p7169
sg9
V2.45
p7170
sg10
V1.75
p7171
sg12
V72
p7172
sg14
V173
p7173
sg16
V1.35
p7174
sg17
V1.75
p7175
sg19
V87
p7176
sg20
V1.75
p7177
sg22
V155.5
p7178
sg24
S'64'
p7179
sg26
V-4.5
p7180
sg28
V17
p7181
sg29
g7143
sg31
V77
p7182
sg33
S'65'
p7183
sg35
V44
p7184
sg37
S'362'
p7185
sg39
V+4.5
p7186
sa(dp7187
g3
V\u66fc\u96f7\u85a9
p7188
sg5
V\u5c24\u6587\u5716\u7279
p7189
sg7
V1.75
p7190
sg9
V2.45
p7191
sg10
V1.75
p7192
sg12
V56
p7193
sg14
V144
p7194
sg16
V1.35
p7195
sg17
V1.75
p7196
sg19
V77
p7197
sg20
V1.75
p7198
sg22
V157.5
p7199
sg24
S'79'
p7200
sg26
V-4.5
p7201
sg28
V11
p7202
sg29
S'20141130'
p7203
sg31
V64
p7204
sg33
S'84'
p7205
sg35
V49
p7206
sg37
S'341'
p7207
sg39
V+4.5
p7208
sa(dp7209
g3
V\u8499\u5df4\u65af
p7210
sg5
V\u8cfd\u7dad\u4e9e
p7211
sg7
V1.75
p7212
sg9
V1.3
p7213
sg10
V1.75
p7214
sg12
V54
p7215
sg14
V73
p7216
sg16
V2.6
p7217
sg17
V1.75
p7218
sg19
V14
p7219
sg20
V1.75
p7220
sg22
V148.5
p7221
sg24
S'88'
p7222
sg26
V+5.5
p7223
sg28
V56
p7224
sg29
g7203
sg31
V110
p7225
sg33
S'77'
p7226
sg35
V54
p7227
sg37
S'342'
p7228
sg39
V-5.5
p7229
sa(dp7230
g3
V\u7562\u723e\u5305
p7231
sg5
V\u963f\u745f\u6cd5\u5b78\u751f
p7232
sg7
V1.75
p7233
sg9
V1.15
p7234
sg10
V1.75
p7235
sg12
V43
p7236
sg14
V54
p7237
sg16
V3.5
p7238
sg17
V1.75
p7239
sg19
V3
sg20
V1.75
p7240
sg22
V150.5
p7241
sg24
S'64'
p7242
sg26
V+8.5
p7243
sg28
V81
p7244
sg29
g7203
sg31
V119
p7245
sg33
S'63'
p7246
sg35
V42
p7247
sg37
S'347'
p7248
sg39
V-8.5
p7249
sa(dp7250
g3
V\u52de\u52d5\u8005\u9280\u884c
p7251
sg5
V\u52a0\u90a3\u5229\u65af
p7252
sg7
V1.75
p7253
sg9
V1.25
p7254
sg10
V1.75
p7255
sg12
V45
p7256
sg14
V65
p7257
sg16
V2.85
p7258
sg17
V1.75
p7259
sg19
V7
sg20
V1.75
p7260
sg22
V156.5
p7261
sg24
S'84'
p7262
sg26
V+6.5
p7263
sg28
V71
p7264
sg29
g7203
sg31
V114
p7265
sg33
S'74'
p7266
sg35
V44
p7267
sg37
S'349'
p7268
sg39
V-6.5
p7269
sa(dp7270
g3
V\u5df4\u585e\u9686\u7d0d
p7271
sg5
V\u7a46\u723e\u897f\u4e9e
p7272
sg7
V1.75
p7273
sg9
V
sg10
V1.75
p7274
sg12
V59
p7275
sg14
V74
p7276
sg16
V
sg17
V1.75
p7277
sg19
S''
sg20
V1.75
p7278
sg22
V151.5
p7279
sg24
S'90'
p7280
sg26
V+18.5
p7281
sg28
S''
sg29
g7203
sg31
V92
p7282
sg33
S'70'
p7283
sg35
V36
p7284
sg37
S'350'
p7285
sg39
V-18.5
p7286
sa(dp7287
g3
V\u5927\u52a0\u90a3\u5229
p7288
sg5
V\u8056\u585e\u5df4\u65af\u63d0\u5b89
p7289
sg7
V1.75
p7290
sg9
V1.1
p7291
sg10
V1.75
p7292
sg12
V52
p7293
sg14
V54
p7294
sg16
V4
sg17
V1.75
p7295
sg19
V7
sg20
V1.75
p7296
sg22
V143.5
p7297
sg24
S'71'
p7298
sg26
V+9.5
p7299
sg28
V71
p7300
sg29
g7203
sg31
V103
p7301
sg33
S'70'
p7302
sg35
V42
p7303
sg37
S'351'
p7304
sg39
V-9.5
p7305
sa(dp7306
g3
V\u8056\u585e\u5df4\u65af\u63d0\u5b89
p7307
sg5
V\u66fc\u96f7\u85a9
p7308
sg7
V1.75
p7309
sg9
V1.25
p7310
sg10
V1.75
p7311
sg12
V70
p7312
sg14
V81
p7313
sg16
V2.85
p7314
sg17
V1.75
p7315
sg19
V16
p7316
sg20
V1.75
p7317
sg22
V145.5
p7318
sg24
S'82'
p7319
sg26
V+6.5
p7320
sg28
V74
p7321
sg29
S'20141124'
p7322
sg31
V132
p7323
sg33
S'75'
p7324
sg35
V55
p7325
sg37
S'339'
p7326
sg39
V-6.5
p7327
sa(dp7328
g3
V\u74e6\u502b\u897f\u4e9e
p7329
sg5
V\u70cf\u5c3c\u5361\u4e9e
p7330
sg7
V1.75
p7331
sg9
V1.45
p7332
sg10
V1.75
p7333
sg12
V85
p7334
sg14
V95
p7335
sg16
V2.15
p7336
sg17
V1.75
p7337
sg19
V22
p7338
sg20
V1.75
p7339
sg22
V151.5
p7340
sg24
S'64'
p7341
sg26
V+3.5
p7342
sg28
V79
p7343
sg29
g7322
sg31
V178
p7344
sg33
S'75'
p7345
sg35
V57
p7346
sg37
S'340'
p7347
sg39
V-3.5
p7348
sa(dp7349
g3
V\u5c24\u6587\u5716\u7279
p7350
sg5
V\u52de\u52d5\u8005\u9280\u884c
p7351
sg7
V1.75
p7352
sg9
V1.45
p7353
sg10
V1.75
p7354
sg12
V54
p7355
sg14
V100
p7356
sg16
V2.15
p7357
sg17
V1.75
p7358
sg19
V26
p7359
sg20
V1.75
p7360
sg22
V158.5
p7361
sg24
S'83'
p7362
sg26
V+3.5
p7363
sg28
V67
p7364
sg29
S'20141123'
p7365
sg31
V131
p7366
sg33
S'82'
p7367
sg35
V47
p7368
sg37
S'332'
p7369
sg39
V-3.5
p7370
sa(dp7371
g3
V\u85a9\u62c9\u6208\u85a9
p7372
sg5
V\u963f\u745f\u6cd5\u5b78\u751f
p7373
sg7
V1.75
p7374
sg9
V1.15
p7375
sg10
V1.75
p7376
sg12
V51
p7377
sg14
V65
p7378
sg16
V3.5
p7379
sg17
V1.75
p7380
sg19
V11
p7381
sg20
V1.75
p7382
sg22
V147.5
p7383
sg24
S'82'
p7384
sg26
V+8.5
p7385
sg28
V80
p7386
sg29
g7365
sg31
V123
p7387
sg33
S'72'
p7388
sg35
V38
p7389
sg37
S'333'
p7390
sg39
V-8.5
p7391
sa(dp7392
g3
V\u8cfd\u7dad\u4e9e
p7393
sg5
V\u7687\u5bb6\u99ac\u5fb7\u91cc
p7394
sg7
V1.75
p7395
sg9
V
sg10
V1.75
p7396
sg12
V61
p7397
sg14
V128
p7398
sg16
V
sg17
V1.75
p7399
sg19
S''
sg20
V1.75
p7400
sg22
V163.5
p7401
sg24
S'72'
p7402
sg26
V-14.5
p7403
sg28
S''
sg29
g7365
sg31
V88
p7404
sg33
S'81'
p7405
sg35
V60
p7406
sg37
S'334'
p7407
sg39
V+14.5
p7408
sa(dp7409
g3
V\u7a46\u723e\u897f\u4e9e
p7410
sg5
V\u8499\u5df4\u65af
p7411
sg7
V1.75
p7412
sg9
V1.25
p7413
sg10
V1.75
p7414
sg12
V42
p7415
sg14
V52
p7416
sg16
V2.85
p7417
sg17
V1.75
p7418
sg19
V10
p7419
sg20
V1.75
p7420
sg22
V148.5
p7421
sg24
S'68'
p7422
sg26
V+6.5
p7423
sg28
V66
p7424
sg29
g7365
sg31
V104
p7425
sg33
S'64'
p7426
sg35
V35
p7427
sg37
S'335'
p7428
sg39
V-6.5
p7429
sa(dp7430
g3
V\u8c50\u62c9\u592b\u62c9\u9054
p7431
sg5
V\u5df4\u585e\u9686\u7d0d
p7432
sg7
V1.75
p7433
sg9
V
sg10
V1.75
p7434
sg12
V68
p7435
sg14
V131
p7436
sg16
V
sg17
V1.75
p7437
sg19
S''
sg20
V1.75
p7438
sg22
V148.5
p7439
sg24
S'64'
p7440
sg26
V-14.5
p7441
sg28
S''
sg29
g7365
sg31
V74
p7442
sg33
S'79'
p7443
sg35
V40
p7444
sg37
S'336'
p7445
sg39
V+14.5
p7446
sa(dp7447
g3
V\u5927\u52a0\u90a3\u5229
p7448
sg5
V\u7562\u723e\u5305
p7449
sg7
V1.75
p7450
sg9
V1.2
p7451
sg10
V1.75
p7452
sg12
V53
p7453
sg14
V99
p7454
sg16
V3.1
p7455
sg17
V1.75
p7456
sg19
V17
p7457
sg20
V1.75
p7458
sg22
V149.5
p7459
sg24
S'60'
p7460
sg26
V+7.5
p7461
sg28
V79
p7462
sg29
g7365
sg31
V109
p7463
sg33
S'70'
p7464
sg35
V36
p7465
sg37
S'337'
p7466
sg39
V-7.5
p7467
sa(dp7468
g3
V\u52a0\u90a3\u5229\u65af
p7469
sg5
V\u5b89\u591a\u62c9
p7470
sg7
V1.75
p7471
sg9
V1.3
p7472
sg10
V1.75
p7473
sg12
V42
p7474
sg14
V61
p7475
sg16
V2.6
p7476
sg17
V1.75
p7477
sg19
V15
p7478
sg20
V1.75
p7479
sg22
V158.5
p7480
sg24
S'83'
p7481
sg26
V+5.5
p7482
sg28
V63
p7483
sg29
g7365
sg31
V101
p7484
sg33
S'56'
p7485
sg35
V38
p7486
sg37
S'338'
p7487
sg39
V-5.5
p7488
sa(dp7489
g3
V\u5df4\u585e\u9686\u7d0d
p7490
sg5
V\u74e6\u502b\u897f\u4e9e
p7491
sg7
V1.75
p7492
sg9
V1.15
p7493
sg10
V1.75
p7494
sg12
V128
p7495
sg14
V93
p7496
sg16
V3.5
p7497
sg17
V1.75
p7498
sg19
V7
sg20
V1.75
p7499
sg22
V152.5
p7500
sg24
S'76'
p7501
sg26
V+8.5
p7502
sg28
V124
p7503
sg29
S'20141117'
p7504
sg31
V220
p7505
sg33
S'57'
p7506
sg35
V64
p7507
sg37
S'356'
p7508
sg39
V-8.5
p7509
sa(dp7510
g3
V\u963f\u745f\u6cd5\u5b78\u751f
p7511
sg5
V\u8cfd\u7dad\u4e9e
p7512
sg7
V1.75
p7513
sg9
V1.3
p7514
sg10
V1.75
p7515
sg12
V87
p7516
sg14
V109
p7517
sg16
V2.6
p7518
sg17
V1.75
p7519
sg19
V26
p7520
sg20
V1.75
p7521
sg22
V148.5
p7522
sg24
S'65'
p7523
sg26
V+5.5
p7524
sg28
V98
p7525
sg29
g7504
sg31
V168
p7526
sg33
S'82'
p7527
sg35
V76
p7528
sg37
S'357'
p7529
sg39
V-5.5
p7530
sa(dp7531
g3
V\u70cf\u5c3c\u5361\u4e9e
p7532
sg5
V\u52a0\u90a3\u5229\u65af
p7533
sg7
V1.75
p7534
sg9
V
sg10
V1.75
p7535
sg12
V96
p7536
sg14
V143
p7537
sg16
V
sg17
V1.75
p7538
sg19
S''
sg20
V1.75
p7539
sg22
V154.5
p7540
sg24
S'84'
p7541
sg26
V+12.5
p7542
sg28
S''
sg29
g7504
sg31
V148
p7543
sg33
S'68'
p7544
sg35
V76
p7545
sg37
S'358'
p7546
sg39
V-12.5
p7547
sa(dp7548
g3
V\u8499\u5df4\u65af
p7549
sg5
V\u8c50\u62c9\u592b\u62c9\u9054
p7550
sg7
V1.75
p7551
sg9
V1.3
p7552
sg10
V1.75
p7553
sg12
V66
p7554
sg14
V77
p7555
sg16
V2.6
p7556
sg17
V1.75
p7557
sg19
V9
sg20
V1.75
p7558
sg22
V147.5
p7559
sg24
S'75'
p7560
sg26
V+5.5
p7561
sg28
V90
p7562
sg29
S'20141116'
p7563
sg31
V145
p7564
sg33
S'63'
p7565
sg35
V60
p7566
sg37
S'350'
p7567
sg39
V-5.5
p7568
sa(dp7569
g3
V\u52de\u52d5\u8005\u9280\u884c
p7570
sg5
V\u8056\u585e\u5df4\u65af\u63d0\u5b89
p7571
sg7
V1.75
p7572
sg9
V
sg10
V1.75
p7573
sg12
V75
p7574
sg14
V106
p7575
sg16
V
sg17
V1.75
p7576
sg19
S''
sg20
V1.75
p7577
sg22
V152.5
p7578
sg24
S'79'
p7579
sg26
V+11.5
p7580
sg28
S''
sg29
g7563
sg31
V175
p7581
sg33
S'62'
p7582
sg35
V66
p7583
sg37
S'351'
p7584
sg39
V-11.5
p7585
sa(dp7586
g3
V\u5b89\u591a\u62c9
p7587
sg5
V\u5c24\u6587\u5716\u7279
p7588
sg7
V1.75
p7589
sg9
V1.9
p7590
sg10
V1.75
p7591
sg12
V83
p7592
sg14
V176
p7593
sg16
V1.6
p7594
sg17
V1.75
p7595
sg19
V70
p7596
sg20
V1.75
p7597
sg22
V157.5
p7598
sg24
S'84'
p7599
sg26
V-1.5
p7600
sg28
V40
p7601
sg29
g7563
sg31
V111
p7602
sg33
S'81'
p7603
sg35
V52
p7604
sg37
S'352'
p7605
sg39
V+1.5
p7606
sa(dp7607
g3
V\u7562\u723e\u5305
p7608
sg5
V\u85a9\u62c9\u6208\u85a9
p7609
sg7
V1.75
p7610
sg9
V1.3
p7611
sg10
V1.75
p7612
sg12
V58
p7613
sg14
V73
p7614
sg16
V2.6
p7615
sg17
V1.75
p7616
sg19
V19
p7617
sg20
V1.75
p7618
sg22
V149.5
p7619
sg24
S'71'
p7620
sg26
V+5.5
p7621
sg28
V83
p7622
sg29
g7563
sg31
V159
p7623
sg33
S'82'
p7624
sg35
V49
p7625
sg37
S'353'
p7626
sg39
V-5.5
p7627
sa(dp7628
g3
V\u7687\u5bb6\u99ac\u5fb7\u91cc
p7629
sg5
V\u7a46\u723e\u897f\u4e9e
p7630
sg7
V1.75
p7631
sg9
V
sg10
V1.75
p7632
sg12
V78
p7633
sg14
V120
p7634
sg16
V
sg17
V1.75
p7635
sg19
S''
sg20
V1.75
p7636
sg22
V164.5
p7637
sg24
S'90'
p7638
sg26
V+18.5
p7639
sg28
S''
sg29
g7563
sg31
V105
p7640
sg33
S'65'
p7641
sg35
V42
p7642
sg37
S'354'
p7643
sg39
V-18.5
p7644
sa(dp7645
g3
V\u66fc\u96f7\u85a9
p7646
sg5
V\u5927\u52a0\u90a3\u5229
p7647
sg7
V1.75
p7648
sg9
V2.6
p7649
sg10
V1.75
p7650
sg12
V65
p7651
sg14
V135
p7652
sg16
V1.3
p7653
sg17
V1.75
p7654
sg19
V77
p7655
sg20
V1.75
p7656
sg22
V151.5
p7657
sg24
S'73'
p7658
sg26
V-5.5
p7659
sg28
V23
p7660
sg29
g7563
sg31
V69
p7661
sg33
S'81'
p7662
sg35
V38
p7663
sg37
S'355'
p7664
sg39
V+5.5
p7665
sa(dp7666
g3
V\u5c24\u6587\u5716\u7279
p7667
sg5
V\u70cf\u5c3c\u5361\u4e9e
p7668
sg7
V1.75
p7669
sg9
V2.15
p7670
sg10
V1.75
p7671
sg12
V117
p7672
sg14
V215
p7673
sg16
V1.45
p7674
sg17
V1.75
p7675
sg19
V111
p7676
sg20
V1.75
p7677
sg22
V150.5
p7678
sg24
S'82'
p7679
sg26
V-3.5
p7680
sg28
V41
p7681
sg29
S'20141110'
p7682
sg31
V124
p7683
sg33
S'74'
p7684
sg35
V98
p7685
sg37
S'355'
p7686
sg39
V+3.5
p7687
sa(dp7688
g3
V\u74e6\u502b\u897f\u4e9e
p7689
sg5
V\u8499\u5df4\u65af
p7690
sg7
V1.75
p7691
sg9
V
sg10
V1.75
p7692
sg12
V97
p7693
sg14
V137
p7694
sg16
V
sg17
V1.75
p7695
sg19
S''
sg20
V1.75
p7696
sg22
V149.5
p7697
sg24
S'81'
p7698
sg26
V+14.5
p7699
sg28
S''
sg29
g7682
sg31
V190
p7700
sg33
S'64'
p7701
sg35
V108
p7702
sg37
S'356'
p7703
sg39
V-14.5
p7704
sa(dp7705
g3
V\u8056\u585e\u5df4\u65af\u63d0\u5b89
p7706
sg5
V\u5b89\u591a\u62c9
p7707
sg7
V1.75
p7708
sg9
V2.05
p7709
sg10
V1.75
p7710
sg12
V75
p7711
sg14
V153
p7712
sg16
V1.5
p7713
sg17
V1.75
p7714
sg19
V92
p7715
sg20
V1.75
p7716
sg22
V150.5
p7717
sg24
S'67'
p7718
sg26
V-2.5
p7719
sg28
V41
p7720
sg29
S'20141109'
p7721
sg31
V120
p7722
sg33
S'64'
p7723
sg35
V44
p7724
sg37
S'348'
p7725
sg39
V+2.5
p7726
sa(dp7727
g3
V\u66fc\u96f7\u85a9
p7728
sg5
V\u7562\u723e\u5305
p7729
sg7
V1.75
p7730
sg9
V2.85
p7731
sg10
V1.75
p7732
sg12
V60
p7733
sg14
V162
p7734
sg16
V1.25
p7735
sg17
V1.75
p7736
sg19
V112
p7737
sg20
V1.75
p7738
sg22
V154.5
p7739
sg24
S'76'
p7740
sg26
V-6.5
p7741
sg28
V19
p7742
sg29
g7721
sg31
V77
p7743
sg33
S'77'
p7744
sg35
V37
p7745
sg37
S'349'
p7746
sg39
V+6.5
p7747
sa(dp7748
g3
V\u8cfd\u7dad\u4e9e
p7749
sg5
V\u85a9\u62c9\u6208\u85a9
p7750
sg7
V1.75
p7751
sg9
V2.85
p7752
sg10
V1.75
p7753
sg12
V48
p7754
sg14
V118
p7755
sg16
V1.25
p7756
sg17
V1.75
p7757
sg19
V88
p7758
sg20
V1.75
p7759
sg22
V152.5
p7760
sg24
S'77'
p7761
sg26
V-6.5
p7762
sg28
V24
p7763
sg29
g7721
sg31
V87
p7764
sg33
S'73'
p7765
sg35
V49
p7766
sg37
S'350'
p7767
sg39
V+6.5
p7768
sa(dp7769
g3
V\u7a46\u723e\u897f\u4e9e
p7770
sg5
V\u963f\u745f\u6cd5\u5b78\u751f
p7771
sg7
V1.75
p7772
sg9
V1.35
p7773
sg10
V1.75
p7774
sg12
V60
p7775
sg14
V68
p7776
sg16
V2.45
p7777
sg17
V1.75
p7778
sg19
V19
p7779
sg20
V1.75
p7780
sg22
V155.5
p7781
sg24
S'79'
p7782
sg26
V+4.5
p7783
sg28
V100
p7784
sg29
g7721
sg31
V144
p7785
sg33
S'65'
p7786
sg35
V33
p7787
sg37
S'351'
p7788
sg39
V-4.5
p7789
sa(dp7790
g3
V\u8c50\u62c9\u592b\u62c9\u9054
p7791
sg5
V\u7687\u5bb6\u99ac\u5fb7\u91cc
p7792
sg7
V1.75
p7793
sg9
V
sg10
V1.75
p7794
sg12
V73
p7795
sg14
V137
p7796
sg16
V
sg17
V1.75
p7797
sg19
S''
sg20
V1.75
p7798
sg22
V160.5
p7799
sg24
S'94'
p7800
sg26
V-17.5
p7801
sg28
S''
sg29
g7721
sg31
V92
p7802
sg33
S'96'
p7803
sg35
V44
p7804
sg37
S'352'
p7805
sg39
V+17.5
p7806
sa(dp7807
g3
V\u5927\u52a0\u90a3\u5229
p7808
sg5
V\u52de\u52d5\u8005\u9280\u884c
p7809
sg7
V1.75
p7810
sg9
V1.45
p7811
sg10
V1.75
p7812
sg12
V68
p7813
sg14
V119
p7814
sg16
V2.15
p7815
sg17
V1.75
p7816
sg19
V42
p7817
sg20
V1.75
p7818
sg22
V147.5
p7819
sg24
S'93'
p7820
sg26
V+3.5
p7821
sg28
V75
p7822
sg29
g7721
sg31
V111
p7823
sg33
S'77'
p7824
sg35
V50
p7825
sg37
S'353'
p7826
sg39
V-3.5
p7827
sa(dp7828
g3
V\u52a0\u90a3\u5229\u65af
p7829
sg5
V\u5df4\u585e\u9686\u7d0d
p7830
sg7
V1.75
p7831
sg9
V
sg10
V1.75
p7832
sg12
V77
p7833
sg14
V171
p7834
sg16
V
sg17
V1.75
p7835
sg19
S''
sg20
V1.75
p7836
sg22
V156.5
p7837
sg24
S'66'
p7838
sg26
V-10.5
p7839
sg28
S''
sg29
g7721
sg31
V98
p7840
sg33
S'80'
p7841
sg35
V40
p7842
sg37
S'354'
p7843
sg39
V+10.5
p7844
sa(dp7845
g3
V\u52de\u52d5\u8005\u9280\u884c
p7846
sg5
V\u66fc\u96f7\u85a9
p7847
sg7
V1.75
p7848
sg9
V
sg10
V1.75
p7849
sg12
V125
p7850
sg14
V135
p7851
sg16
V
sg17
V1.75
p7852
sg19
S''
sg20
V1.75
p7853
sg22
V159.5
p7854
sg24
S'87'
p7855
sg26
V+14.5
p7856
sg28
S''
sg29
S'20141103'
p7857
sg31
V195
p7858
sg33
S'67'
p7859
sg35
V78
p7860
sg37
S'340'
p7861
sg39
V-14.5
p7862
sa(dp7863
g3
V\u963f\u745f\u6cd5\u5b78\u751f
p7864
sg5
V\u8c50\u62c9\u592b\u62c9\u9054
p7865
sg7
V1.75
p7866
sg9
V1.25
p7867
sg10
V1.75
p7868
sg12
V105
p7869
sg14
V129
p7870
sg16
V2.85
p7871
sg17
V1.75
p7872
sg19
V18
p7873
sg20
V1.75
p7874
sg22
V146.5
p7875
sg24
S'86'
p7876
sg26
V+6.5
p7877
sg28
V96
p7878
sg29
g7857
sg31
V176
p7879
sg33
S'79'
p7880
sg35
V94
p7881
sg37
S'350'
p7882
sg39
V-6.5
p7883
sa(dp7884
g3
V\u5b89\u591a\u62c9
p7885
sg5
V\u5927\u52a0\u90a3\u5229
p7886
sg7
V1.75
p7887
sg9
V2.2
p7888
sg10
V1.75
p7889
sg12
V71
p7890
sg14
V139
p7891
sg16
V1.45
p7892
sg17
V1.75
p7893
sg19
V84
p7894
sg20
V1.75
p7895
sg22
V150.5
p7896
sg24
S'91'
p7897
sg26
V-3.5
p7898
sg28
V43
p7899
sg29
S'20141102'
p7900
sg31
V108
p7901
sg33
S'86'
p7902
sg35
V61
p7903
sg37
S'304'
p7904
sg39
V+3.5
p7905
sa(dp7906
g3
V\u7562\u723e\u5305
p7907
sg5
V\u8cfd\u7dad\u4e9e
p7908
sg7
V1.75
p7909
sg9
V
sg10
V1.75
p7910
sg12
V55
p7911
sg14
V96
p7912
sg16
V
sg17
V1.75
p7913
sg19
S''
sg20
V1.75
p7914
sg22
V157.5
p7915
sg24
S'89'
p7916
sg26
V+11.5
p7917
sg28
S''
sg29
g7900
sg31
V185
p7918
sg33
S'61'
p7919
sg35
V89
p7920
sg37
S'314'
p7921
sg39
V-11.5
p7922
sa(dp7923
g3
V\u70cf\u5c3c\u5361\u4e9e
p7924
sg5
V\u8056\u585e\u5df4\u65af\u63d0\u5b89
p7925
sg7
V1.75
p7926
sg9
V
sg10
V1.75
p7927
sg12
V60
p7928
sg14
V93
p7929
sg16
V
sg17
V1.75
p7930
sg19
S''
sg20
V1.75
p7931
sg22
V150.5
p7932
sg24
S'74'
p7933
sg26
V+16.5
p7934
sg28
S''
sg29
g7900
sg31
V135
p7935
sg33
S'59'
p7936
sg35
V59
p7937
sg37
S'315'
p7938
sg39
V-16.5
p7939
sa(dp7940
g3
V\u85a9\u62c9\u6208\u85a9
p7941
sg5
V\u7a46\u723e\u897f\u4e9e
p7942
sg7
V1.75
p7943
sg9
V1.3
p7944
sg10
V1.75
p7945
sg12
V67
p7946
sg14
V75
p7947
sg16
V2.7
p7948
sg17
V1.75
p7949
sg19
V9
sg20
V1.75
p7950
sg22
V152.5
p7951
sg24
S'82'
p7952
sg26
V+5.5
p7953
sg28
V102
p7954
sg29
g7900
sg31
V152
p7955
sg33
S'63'
p7956
sg35
V47
p7957
sg37
S'316'
p7958
sg39
V-5.5
p7959
sa(dp7960
g3
V\u5df4\u585e\u9686\u7d0d
p7961
sg5
V\u5c24\u6587\u5716\u7279
p7962
sg7
V1.75
p7963
sg9
V
sg10
V1.75
p7964
sg12
V55
p7965
sg14
V108
p7966
sg16
V
sg17
V1.75
p7967
sg19
S''
sg20
V1.75
p7968
sg22
V152.5
p7969
sg24
S'82'
p7970
sg26
V+15.5
p7971
sg28
S''
sg29
g7900
sg31
V153
p7972
sg33
S'83'
p7973
sg35
V66
p7974
sg37
S'337'
p7975
sg39
V-15.5
p7976
sa(dp7977
g3
V\u7687\u5bb6\u99ac\u5fb7\u91cc
p7978
sg5
V\u74e6\u502b\u897f\u4e9e
p7979
sg7
V1.75
p7980
sg9
V1.15
p7981
sg10
V1.75
p7982
sg12
V92
p7983
sg14
V71
p7984
sg16
V3.5
p7985
sg17
V1.75
p7986
sg19
V3
sg20
V1.75
p7987
sg22
V162.5
p7988
sg24
S'90'
p7989
sg26
V+8.5
p7990
sg28
V163
p7991
sg29
g7900
sg31
V204
p7992
sg33
S'71'
p7993
sg35
V52
p7994
sg37
S'338'
p7995
sg39
V-8.5
p7996
sa(dp7997
g3
V\u8499\u5df4\u65af
p7998
sg5
V\u52a0\u90a3\u5229\u65af
p7999
sg7
V1.75
p8000
sg9
V1.5
p8001
sg10
V1.75
p8002
sg12
V56
p8003
sg14
V107
p8004
sg16
V2.05
p8005
sg17
V1.75
p8006
sg19
V33
p8007
sg20
V1.75
p8008
sg22
V153.5
p8009
sg24
S'63'
p8010
sg26
V+2.5
p8011
sg28
V83
p8012
sg29
g7900
sg31
V102
p8013
sg33
S'82'
p8014
sg35
V48
p8015
sg37
S'339'
p8016
sg39
V-2.5
p8017
sa.