(lp1
(dp2
S'home_team'
p3
V\u9ad8\u677e\u4e94\u7bad
p4
sS'away_team'
p5
V\u65b0\u6f5f\u5929\u9d5d
p6
sS'away_line_odds'
p7
V1.75
p8
sS'home_money_line_odds'
p9
V
sS'under_odds'
p10
V1.75
p11
sS'over_num'
p12
V56
p13
sS'away_line_num'
p14
V56
p15
sS'away_money_line_odds'
p16
V
sS'home_line_odds'
p17
V1.75
p18
sS'away_money_line_num'
p19
S''
sS'over_odds'
p20
V1.75
p21
sS'over_under'
p22
V151.5
p23
sS'home_score'
p24
S'73'
p25
sS'away_line'
p26
V-13.5
p27
sS'home_money_line_num'
p28
S''
sS'date'
p29
S'20151227'
p30
sS'home_line_num'
p31
V90
p32
sS'away_score'
p33
S'69'
p34
sS'under_num'
p35
V28
p36
sS'id'
p37
S'314'
p38
sS'home_line'
p39
V+13.5
p40
sa(dp41
g3
V\u5cf6\u6839\u9b54\u8853
p42
sg5
V\u52c7\u58eb\u9577\u91ce
p43
sg7
V1.75
p44
sg9
V
sg10
V1.75
p45
sg12
V61
p46
sg14
V68
p47
sg16
V
sg17
V1.75
p48
sg19
S''
sg20
V1.75
p49
sg22
V155.5
p50
sg24
S'79'
p51
sg26
V+15.5
p52
sg28
S''
sg29
g30
sg31
V88
p53
sg33
S'68'
p54
sg35
V24
p55
sg37
S'315'
p56
sg39
V-15.5
p57
sa(dp58
g3
V\u5bcc\u5c71\u677e\u96de
p59
sg5
V\u5927\u5206\u706b\u9b54
p60
sg7
V1.75
p61
sg9
V
sg10
V1.75
p62
sg12
V47
p63
sg14
V69
p64
sg16
V
sg17
V1.75
p65
sg19
S''
sg20
V1.75
p66
sg22
V169.5
p67
sg24
S'94'
p68
sg26
V+15.5
p69
sg28
S''
sg29
g30
sg31
V63
p70
sg33
S'80'
p71
sg35
V49
p72
sg37
S'316'
p73
sg39
V-15.5
p74
sa(dp75
g3
V\u5927\u962a\u4e03\u798f\u795e
p76
sg5
V\u798f\u5cf6\u706b\u50b5\u5238
p77
sg7
V1.75
p78
sg9
V
sg10
V1.75
p79
sg12
V52
p80
sg14
V108
p81
sg16
V
sg17
V1.75
p82
sg19
S''
sg20
V1.75
p83
sg22
V155.5
p84
sg24
S'65'
p85
sg26
V+13.5
p86
sg28
S''
sg29
g30
sg31
V79
p87
sg33
S'68'
p88
sg35
V30
p89
sg37
S'317'
p90
sg39
V-13.5
p91
sa(dp92
g3
V\u7fa4\u99ac\u96f7\u9db4
p93
sg5
V\u6ff1\u677e\u6771\u4e09\u6cb3\u9cf3\u51f0
p94
sg7
V1.75
p95
sg9
V3.1
p96
sg10
V1.75
p97
sg12
V67
p98
sg14
V135
p99
sg16
V1.2
p100
sg17
V1.75
p101
sg19
V58
p102
sg20
V1.75
p103
sg22
V146.5
p104
sg24
S'76'
p105
sg26
V-7.5
p106
sg28
V8
sg29
g30
sg31
V69
p107
sg33
S'79'
p108
sg35
V36
p109
sg37
S'325'
p110
sg39
V+7.5
p111
sa(dp112
g3
V\u5ca9\u624b\u5927\u516c\u725b
p113
sg5
V\u4eac\u90fd\u5275\u69ae
p114
sg7
V1.75
p115
sg9
V2.85
p116
sg10
V1.75
p117
sg12
V60
p118
sg14
V95
p119
sg16
V1.25
p120
sg17
V1.75
p121
sg19
V44
p122
sg20
V1.75
p123
sg22
V144.5
p124
sg24
S'75'
p125
sg26
V-6.5
p126
sg28
V7
sg29
g30
sg31
V96
p127
sg33
S'85'
p128
sg35
V30
p129
sg37
S'326'
p130
sg39
V+6.5
p131
sa(dp132
g3
V\u9752\u68ee\u71b1\u529b
p133
sg5
V\u6ecb\u8cc0\u6e56\u661f
p134
sg7
V1.75
p135
sg9
V2.45
p136
sg10
V1.75
p137
sg12
V51
p138
sg14
V138
p139
sg16
V1.35
p140
sg17
V1.75
p141
sg19
V62
p142
sg20
V1.75
p143
sg22
V154.5
p144
sg24
S'55'
p145
sg26
V-4.5
p146
sg28
V13
p147
sg29
g30
sg31
V68
p148
sg33
S'88'
p149
sg35
V41
p150
sg37
S'327'
p151
sg39
V+4.5
p152
sa(dp153
g3
V\u79cb\u7530\u5317\u90e8\u559c\u6085
p154
sg5
V\u798f\u5ca1\u65b0\u92b3
p155
sg7
V1.75
p156
sg9
V1.1
p157
sg10
V1.75
p158
sg12
V94
p159
sg14
V63
p160
sg16
V4
sg17
V1.75
p161
sg19
V5
sg20
V1.75
p162
sg22
V155.5
p163
sg24
S'88'
p164
sg26
V+9.5
p165
sg28
V69
p166
sg29
g30
sg31
V142
p167
sg33
S'67'
p168
sg35
V16
p169
sg37
S'328'
p170
sg39
V-9.5
p171
sa(dp172
g3
V\u5948\u826f\u91ce\u5fc3
p173
sg5
V\u57fc\u7389\u91ce\u99ac
p174
sg7
V1.75
p175
sg9
V1.25
p176
sg10
V1.75
p177
sg12
V58
p178
sg14
V56
p179
sg16
V2.85
p180
sg17
V1.75
p181
sg19
V3
sg20
V1.75
p182
sg22
V153.5
p183
sg24
S'91'
p184
sg26
V+6.5
p185
sg28
V62
p186
sg29
g30
sg31
V115
p187
sg33
S'70'
p188
sg35
V30
p189
sg37
S'329'
p190
sg39
V-6.5
p191
sa(dp192
g3
V\u4ed9\u53f089\u4eba
p193
sg5
V\u77f3\u5ddd\u91d1\u6fa4\u6b66\u58eb\u5718
p194
sg7
V1.75
p195
sg9
V1.15
p196
sg10
V1.75
p197
sg12
V44
p198
sg14
V83
p199
sg16
V3.5
p200
sg17
V1.75
p201
sg19
V6
sg20
V1.75
p202
sg22
V155.5
p203
sg24
S'91'
p204
sg26
V+8.5
p205
sg28
V44
p206
sg29
g30
sg31
V81
p207
sg33
S'70'
p208
sg35
V31
p209
sg37
S'330'
p210
sg39
V-8.5
p211
sa(dp212
g3
V\u6ff1B\u6d77\u76dc\u8239
p213
sg5
V\u7409\u7403\u91d1\u5e1d\u7687
p214
sg7
V1.75
p215
sg9
V2.85
p216
sg10
V1.75
p217
sg12
V75
p218
sg14
V158
p219
sg16
V1.25
p220
sg17
V1.75
p221
sg19
V70
p222
sg20
V1.75
p223
sg22
V159.5
p224
sg24
S'83'
p225
sg26
V-6.5
p226
sg28
V11
p227
sg29
S'20151226'
p228
sg31
V92
p229
sg33
S'92'
p230
sg35
V45
p231
sg37
S'333'
p232
sg39
V+6.5
p233
sa(dp234
g3
V\u5927\u962a\u4e03\u798f\u795e
p235
sg5
V\u798f\u5cf6\u706b\u50b5\u5238
p236
sg7
V1.75
p237
sg9
V1.2
p238
sg10
V1.75
p239
sg12
V46
p240
sg14
V144
p241
sg16
V3.1
p242
sg17
V1.75
p243
sg19
V17
p244
sg20
V1.75
p245
sg22
V154.5
p246
sg24
S'85'
p247
sg26
V+7.5
p248
sg28
V57
p249
sg29
g228
sg31
V100
p250
sg33
S'55'
p251
sg35
V36
p252
sg37
S'309'
p253
sg39
V-7.5
p254
sa(dp255
g3
V\u79cb\u7530\u5317\u90e8\u559c\u6085
p256
sg5
V\u798f\u5ca1\u65b0\u92b3
p257
sg7
V1.75
p258
sg9
V
sg10
V1.75
p259
sg12
V90
p260
sg14
V112
p261
sg16
V
sg17
V1.75
p262
sg19
S''
sg20
V1.75
p263
sg22
V157.5
p264
sg24
S'70'
p265
sg26
V+16.5
p266
sg28
S''
sg29
g228
sg31
V112
p267
sg33
S'80'
p268
sg35
V35
p269
sg37
S'310'
p270
sg39
V-16.5
p271
sa(dp272
g3
V\u9752\u68ee\u71b1\u529b
p273
sg5
V\u6ecb\u8cc0\u6e56\u661f
p274
sg7
V1.75
p275
sg9
V2.05
p276
sg10
V1.75
p277
sg12
V58
p278
sg14
V163
p279
sg16
V1.5
p280
sg17
V1.75
p281
sg19
V84
p282
sg20
V1.75
p283
sg22
V151.5
p284
sg24
S'81'
p285
sg26
V-2.5
p286
sg28
V25
p287
sg29
g228
sg31
V89
p288
sg33
S'86'
p289
sg35
V42
p290
sg37
S'311'
p291
sg39
V+2.5
p292
sa(dp293
g3
V\u4ed9\u53f089\u4eba
p294
sg5
V\u77f3\u5ddd\u91d1\u6fa4\u6b66\u58eb\u5718
p295
sg7
V1.75
p296
sg9
V
sg10
V1.75
p297
sg12
V72
p298
sg14
V114
p299
sg16
V
sg17
V1.75
p300
sg19
S''
sg20
V1.75
p301
sg22
V152.5
p302
sg24
S'83'
p303
sg26
V+10.5
p304
sg28
S''
sg29
g228
sg31
V101
p305
sg33
S'76'
p306
sg35
V37
p307
sg37
S'318'
p308
sg39
V-10.5
p309
sa(dp310
g3
V\u7fa4\u99ac\u96f7\u9db4
p311
sg5
V\u6ff1\u677e\u6771\u4e09\u6cb3\u9cf3\u51f0
p312
sg7
V1.75
p313
sg9
V2.85
p314
sg10
V1.75
p315
sg12
V64
p316
sg14
V164
p317
sg16
V1.25
p318
sg17
V1.75
p319
sg19
V83
p320
sg20
V1.75
p321
sg22
V146.5
p322
sg24
S'61'
p323
sg26
V-6.5
p324
sg28
V10
p325
sg29
g228
sg31
V88
p326
sg33
S'82'
p327
sg35
V39
p328
sg37
S'319'
p329
sg39
V+6.5
p330
sa(dp331
g3
V\u5948\u826f\u91ce\u5fc3
p332
sg5
V\u57fc\u7389\u91ce\u99ac
p333
sg7
V1.75
p334
sg9
V
sg10
V1.75
p335
sg12
V59
p336
sg14
V72
p337
sg16
V
sg17
V1.75
p338
sg19
S''
sg20
V1.75
p339
sg22
V152.5
p340
sg24
S'85'
p341
sg26
V+10.5
p342
sg28
S''
sg29
g228
sg31
V106
p343
sg33
S'81'
p344
sg35
V31
p345
sg37
S'320'
p346
sg39
V-10.5
p347
sa(dp348
g3
V\u5ca9\u624b\u5927\u516c\u725b
p349
sg5
V\u4eac\u90fd\u5275\u69ae
p350
sg7
V1.75
p351
sg9
V2.85
p352
sg10
V1.75
p353
sg12
V82
p354
sg14
V112
p355
sg16
V1.25
p356
sg17
V1.75
p357
sg19
V63
p358
sg20
V1.75
p359
sg22
V144.5
p360
sg24
S'68'
p361
sg26
V-6.5
p362
sg28
V12
p363
sg29
g228
sg31
V99
p364
sg33
S'75'
p365
sg35
V49
p366
sg37
S'321'
p367
sg39
V+6.5
p368
sa(dp369
g3
V\u5bcc\u5c71\u677e\u96de
p370
sg5
V\u5927\u5206\u706b\u9b54
p371
sg7
V1.75
p372
sg9
V
sg10
V1.75
p373
sg12
V137
p374
sg14
V67
p375
sg16
V
sg17
V1.75
p376
sg19
S''
sg20
V1.75
p377
sg22
V164.5
p378
sg24
S'96'
p379
sg26
V+13.5
p380
sg28
S''
sg29
g228
sg31
V108
p381
sg33
S'73'
p382
sg35
V27
p383
sg37
S'322'
p384
sg39
V-13.5
p385
sa(dp386
g3
V\u9ad8\u677e\u4e94\u7bad
p387
sg5
V\u65b0\u6f5f\u5929\u9d5d
p388
sg7
V1.75
p389
sg9
V
sg10
V1.75
p390
sg12
V64
p391
sg14
V93
p392
sg16
V
sg17
V1.75
p393
sg19
S''
sg20
V1.75
p394
sg22
V156.5
p395
sg24
S'65'
p396
sg26
V-19.5
p397
sg28
S''
sg29
g228
sg31
V133
p398
sg33
S'76'
p399
sg35
V56
p400
sg37
S'323'
p401
sg39
V+19.5
p402
sa(dp403
g3
V\u5cf6\u6839\u9b54\u8853
p404
sg5
V\u52c7\u58eb\u9577\u91ce
p405
sg7
V1.75
p406
sg9
V
sg10
V1.75
p407
sg12
V81
p408
sg14
V65
p409
sg16
V
sg17
V1.75
p410
sg19
S''
sg20
V1.75
p411
sg22
V158.5
p412
sg24
S'86'
p413
sg26
V+14.5
p414
sg28
S''
sg29
g228
sg31
V174
p415
sg33
S'65'
p416
sg35
V38
p417
sg37
S'324'
p418
sg39
V-14.5
p419
sa(dp420
g3
V\u6ff1B\u6d77\u76dc\u8239
p421
sg5
V\u7409\u7403\u91d1\u5e1d\u7687
p422
sg7
V1.75
p423
sg9
V2.85
p424
sg10
V1.75
p425
sg12
V178
p426
sg14
V231
p427
sg16
V1.25
p428
sg17
V1.75
p429
sg19
V103
p430
sg20
V1.75
p431
sg22
V159.5
p432
sg24
S'74'
p433
sg26
V-6.5
p434
sg28
V10
p435
sg29
S'20151225'
p436
sg31
V123
p437
sg33
S'90'
p438
sg35
V85
p439
sg37
S'313'
p440
sg39
V+6.5
p441
sa(dp442
g3
V\u77f3\u5ddd\u91d1\u6fa4\u6b66\u58eb\u5718
p443
sg5
V\u5bcc\u5c71\u677e\u96de
p444
sg7
V1.75
p445
sg9
V1.5
p446
sg10
V1.75
p447
sg12
V49
p448
sg14
V72
p449
sg16
V2.05
p450
sg17
V1.75
p451
sg19
V12
p452
sg20
V1.75
p453
sg22
V154.5
p454
sg24
S'71'
p455
sg26
V+2.5
p456
sg28
V68
p457
sg29
S'20151220'
p458
sg31
V157
p459
sg33
S'76'
p460
sg35
V39
p461
sg37
S'306'
p462
sg39
V-2.5
p463
sa(dp464
g3
V\u6ff1\u677e\u6771\u4e09\u6cb3\u9cf3\u51f0
p465
sg5
V\u6ff1B\u6d77\u76dc\u8239
p466
sg7
V1.75
p467
sg9
V
sg10
V1.75
p468
sg12
V53
p469
sg14
V80
p470
sg16
V
sg17
V1.75
p471
sg19
S''
sg20
V1.75
p472
sg22
V151.5
p473
sg24
S'83'
p474
sg26
V+10.5
p475
sg28
S''
sg29
g458
sg31
V104
p476
sg33
S'79'
p477
sg35
V47
p478
sg37
S'308'
p479
sg39
V-10.5
p480
sa(dp481
g3
V\u798f\u5cf6\u706b\u50b5\u5238
p482
sg5
V\u7409\u7403\u91d1\u5e1d\u7687
p483
sg7
V1.75
p484
sg9
V2.15
p485
sg10
V1.75
p486
sg12
V79
p487
sg14
V199
p488
sg16
V1.45
p489
sg17
V1.75
p490
sg19
V85
p491
sg20
V1.75
p492
sg22
V158.5
p493
sg24
S'78'
p494
sg26
V-3.5
p495
sg28
V8
sg29
g458
sg31
V56
p496
sg33
S'93'
p497
sg35
V26
p498
sg37
S'309'
p499
sg39
V+3.5
p500
sa(dp501
g3
V\u798f\u5ca1\u65b0\u92b3
p502
sg5
V\u9752\u68ee\u71b1\u529b
p503
sg7
V1.75
p504
sg9
V1.5
p505
sg10
V1.75
p506
sg12
V48
p507
sg14
V72
p508
sg16
V2.05
p509
sg17
V1.75
p510
sg19
V19
p511
sg20
V1.75
p512
sg22
V153.5
p513
sg24
S'71'
p514
sg26
V+2.5
p515
sg28
V49
p516
sg29
g458
sg31
V145
p517
sg33
S'66'
p518
sg35
V30
p519
sg37
S'310'
p520
sg39
V-2.5
p521
sa(dp522
g3
V\u5927\u5206\u706b\u9b54
p523
sg5
V\u4ed9\u53f089\u4eba
p524
sg7
V1.75
p525
sg9
V
sg10
V1.75
p526
sg12
V54
p527
sg14
V44
p528
sg16
V
sg17
V1.75
p529
sg19
S''
sg20
V1.75
p530
sg22
V172.5
p531
sg24
S'80'
p532
sg26
V-11.5
p533
sg28
S''
sg29
g458
sg31
V59
p534
sg33
S'96'
p535
sg35
V23
p536
sg37
S'311'
p537
sg39
V+11.5
p538
sa(dp539
g3
V\u5ca9\u624b\u5927\u516c\u725b
p540
sg5
V\u5cf6\u6839\u9b54\u8853
p541
sg7
V1.75
p542
sg9
V2.05
p543
sg10
V1.75
p544
sg12
V52
p545
sg14
V145
p546
sg16
V1.5
p547
sg17
V1.75
p548
sg19
V44
p549
sg20
V1.75
p550
sg22
V151.5
p551
sg24
S'69'
p552
sg26
V-2.5
p553
sg28
V28
p554
sg29
g458
sg31
V102
p555
sg33
S'65'
p556
sg35
V31
p557
sg37
S'333'
p558
sg39
V+2.5
p559
sa(dp560
g3
V\u4eac\u90fd\u5275\u69ae
p561
sg5
V\u79cb\u7530\u5317\u90e8\u559c\u6085
p562
sg7
V1.75
p563
sg9
V1.2
p564
sg10
V1.75
p565
sg12
V60
p566
sg14
V113
p567
sg16
V3.1
p568
sg17
V1.75
p569
sg19
V7
sg20
V1.75
p570
sg22
V154.5
p571
sg24
S'67'
p572
sg26
V+7.5
p573
sg28
V59
p574
sg29
g458
sg31
V123
p575
sg33
S'79'
p576
sg35
V39
p577
sg37
S'335'
p578
sg39
V-7.5
p579
sa(dp580
g3
V\u57fc\u7389\u91ce\u99ac
p581
sg5
V\u9ad8\u677e\u4e94\u7bad
p582
sg7
V1.65
p583
sg9
V1.7
p584
sg10
V1.75
p585
sg12
V45
p586
sg14
V71
p587
sg16
V1.8
p588
sg17
V1.85
p589
sg19
V19
p590
sg20
V1.75
p591
sg22
V158.5
p592
sg24
S'67'
p593
sg26
V+1.5
p594
sg28
V47
p595
sg29
g458
sg31
V124
p596
sg33
S'70'
p597
sg35
V39
p598
sg37
S'336'
p599
sg39
V-1.5
p600
sa(dp601
g3
V\u52c7\u58eb\u9577\u91ce
p602
sg5
V\u5ee3\u5cf6\u9583\u96fb
p603
sg7
V1.75
p604
sg9
V
sg10
V1.75
p605
sg12
V87
p606
sg14
V86
p607
sg16
V
sg17
V1.75
p608
sg19
S''
sg20
V1.75
p609
sg22
V184.5
p610
sg24
S'118'
p611
sg26
V+24.5
p612
sg28
S''
sg29
g458
sg31
V90
p613
sg33
S'87'
p614
sg35
V42
p615
sg37
S'338'
p616
sg39
V-24.5
p617
sa(dp618
g3
V\u6771\u4eac\u4e94\u5922
p619
sg5
V\u5948\u826f\u91ce\u5fc3
p620
sg7
V1.75
p621
sg9
V
sg10
V1.75
p622
sg12
V53
p623
sg14
V115
p624
sg16
V
sg17
V1.75
p625
sg19
S''
sg20
V1.75
p626
sg22
V157.5
p627
sg24
S'69'
p628
sg26
V-14.5
p629
sg28
S''
sg29
S'20151219'
p630
sg31
V66
p631
sg33
S'82'
p632
sg35
V38
p633
sg37
S'327'
p634
sg39
V+14.5
p635
sa(dp636
g3
V\u4eac\u90fd\u5275\u69ae
p637
sg5
V\u79cb\u7530\u5317\u90e8\u559c\u6085
p638
sg7
V1.75
p639
sg9
V1.35
p640
sg10
V1.75
p641
sg12
V76
p642
sg14
V67
p643
sg16
V2.45
p644
sg17
V1.75
p645
sg19
V10
p646
sg20
V1.75
p647
sg22
V153.5
p648
sg24
S'76'
p649
sg26
V+4.5
p650
sg28
V64
p651
sg29
g630
sg31
V139
p652
sg33
S'80'
p653
sg35
V33
p654
sg37
S'328'
p655
sg39
V-4.5
p656
sa(dp657
g3
V\u798f\u5cf6\u706b\u50b5\u5238
p658
sg5
V\u7409\u7403\u91d1\u5e1d\u7687
p659
sg7
V1.75
p660
sg9
V2.15
p661
sg10
V1.75
p662
sg12
V64
p663
sg14
V208
p664
sg16
V1.45
p665
sg17
V1.75
p666
sg19
V84
p667
sg20
V1.75
p668
sg22
V155.5
p669
sg24
S'90'
p670
sg26
V-3.5
p671
sg28
V9
sg29
g630
sg31
V52
p672
sg33
S'81'
p673
sg35
V22
p674
sg37
S'332'
p675
sg39
V+3.5
p676
sa(dp677
g3
V\u52c7\u58eb\u9577\u91ce
p678
sg5
V\u5ee3\u5cf6\u9583\u96fb
p679
sg7
V1.75
p680
sg9
V
sg10
V1.75
p681
sg12
V132
p682
sg14
V81
p683
sg16
V
sg17
V1.75
p684
sg19
S''
sg20
V1.75
p685
sg22
V183.5
p686
sg24
S'108'
p687
sg26
V+18.5
p688
sg28
S''
sg29
g630
sg31
V122
p689
sg33
S'73'
p690
sg35
V45
p691
sg37
S'329'
p692
sg39
V-18.5
p693
sa(dp694
g3
V\u57fc\u7389\u91ce\u99ac
p695
sg5
V\u9ad8\u677e\u4e94\u7bad
p696
sg7
V1.75
p697
sg9
V1.9
p698
sg10
V1.75
p699
sg12
V52
p700
sg14
V99
p701
sg16
V1.6
p702
sg17
V1.75
p703
sg19
V38
p704
sg20
V1.75
p705
sg22
V160.5
p706
sg24
S'67'
p707
sg26
V-1.5
p708
sg28
V40
p709
sg29
g630
sg31
V99
p710
sg33
S'69'
p711
sg35
V27
p712
sg37
S'330'
p713
sg39
V+1.5
p714
sa(dp715
g3
V\u6ff1\u677e\u6771\u4e09\u6cb3\u9cf3\u51f0
p716
sg5
V\u6ff1B\u6d77\u76dc\u8239
p717
sg7
V1.75
p718
sg9
V
sg10
V1.75
p719
sg12
V56
p720
sg14
V86
p721
sg16
V
sg17
V1.75
p722
sg19
S''
sg20
V1.75
p723
sg22
V153.5
p724
sg24
S'65'
p725
sg26
V+13.5
p726
sg28
S''
sg29
g630
sg31
V126
p727
sg33
S'75'
p728
sg35
V46
p729
sg37
S'331'
p730
sg39
V-13.5
p731
sa(dp732
g3
V\u5ca9\u624b\u5927\u516c\u725b
p733
sg5
V\u5cf6\u6839\u9b54\u8853
p734
sg7
V1.75
p735
sg9
V1.6
p736
sg10
V1.75
p737
sg12
V41
p738
sg14
V153
p739
sg16
V1.9
p740
sg17
V1.75
p741
sg19
V47
p742
sg20
V1.75
p743
sg22
V149.5
p744
sg24
S'72'
p745
sg26
V+1.5
p746
sg28
V41
p747
sg29
g630
sg31
V97
p748
sg33
S'88'
p749
sg35
V47
p750
sg37
S'334'
p751
sg39
V-1.5
p752
sa(dp753
g3
V\u77f3\u5ddd\u91d1\u6fa4\u6b66\u58eb\u5718
p754
sg5
V\u5bcc\u5c71\u677e\u96de
p755
sg7
V1.75
p756
sg9
V1.45
p757
sg10
V1.75
p758
sg12
V59
p759
sg14
V89
p760
sg16
V2.15
p761
sg17
V1.75
p762
sg19
V14
p763
sg20
V1.75
p764
sg22
V153.5
p765
sg24
S'68'
p766
sg26
V+3.5
p767
sg28
V58
p768
sg29
g630
sg31
V141
p769
sg33
S'71'
p770
sg35
V26
p771
sg37
S'343'
p772
sg39
V-3.5
p773
sa(dp774
g3
V\u5927\u5206\u706b\u9b54
p775
sg5
V\u4ed9\u53f089\u4eba
p776
sg7
V1.75
p777
sg9
V
sg10
V1.75
p778
sg12
V138
p779
sg14
V98
p780
sg16
V
sg17
V1.75
p781
sg19
S''
sg20
V1.75
p782
sg22
V178.5
p783
sg24
S'74'
p784
sg26
V-15.5
p785
sg28
S''
sg29
g630
sg31
V94
p786
sg33
S'81'
p787
sg35
V38
p788
sg37
S'381'
p789
sg39
V+15.5
p790
sa(dp791
g3
V\u798f\u5ca1\u65b0\u92b3
p792
sg5
V\u9752\u68ee\u71b1\u529b
p793
sg7
V1.75
p794
sg9
V1.35
p795
sg10
V1.75
p796
sg12
V34
p797
sg14
V71
p798
sg16
V2.45
p799
sg17
V1.75
p800
sg19
V11
p801
sg20
V1.75
p802
sg22
V154.5
p803
sg24
S'69'
p804
sg26
V+4.5
p805
sg28
V61
p806
sg29
g630
sg31
V142
p807
sg33
S'79'
p808
sg35
V36
p809
sg37
S'382'
p810
sg39
V-4.5
p811
sa(dp812
g3
V\u6771\u4eac\u4e94\u5922
p813
sg5
V\u5948\u826f\u91ce\u5fc3
p814
sg7
V1.75
p815
sg9
V
sg10
V1.75
p816
sg12
V111
p817
sg14
V232
p818
sg16
V
sg17
V1.75
p819
sg19
S''
sg20
V1.75
p820
sg22
V155.5
p821
sg24
S'72'
p822
sg26
V-12.5
p823
sg28
S''
sg29
S'20151218'
p824
sg31
V140
p825
sg33
S'89'
p826
sg35
V159
p827
sg37
S'304'
p828
sg39
V+12.5
p829
sa(dp830
g3
V\u77f3\u5ddd\u91d1\u6fa4\u6b66\u58eb\u5718
p831
sg5
V\u52c7\u58eb\u9577\u91ce
p832
sg7
V1.75
p833
sg9
V
sg10
V1.75
p834
sg12
V49
p835
sg14
V60
p836
sg16
V
sg17
V1.75
p837
sg19
S''
sg20
V1.75
p838
sg22
V159.5
p839
sg24
S'75'
p840
sg26
V+17.5
p841
sg28
S''
sg29
S'20151213'
p842
sg31
V64
p843
sg33
S'70'
p844
sg35
V25
p845
sg37
S'300'
p846
sg39
V-17.5
p847
sa(dp848
g3
V\u4ed9\u53f089\u4eba
p849
sg5
V\u6ff1\u677e\u6771\u4e09\u6cb3\u9cf3\u51f0
p850
sg7
V1.85
p851
sg9
V1.8
p852
sg10
V1.75
p853
sg12
V44
p854
sg14
V161
p855
sg16
V1.7
p856
sg17
V1.65
p857
sg19
V69
p858
sg20
V1.75
p859
sg22
V153.5
p860
sg24
S'69'
p861
sg26
V-1.5
p862
sg28
V18
p863
sg29
g842
sg31
V70
p864
sg33
S'83'
p865
sg35
V30
p866
sg37
S'301'
p867
sg39
V+1.5
p868
sa(dp869
g3
V\u7409\u7403\u91d1\u5e1d\u7687
p870
sg5
V\u5bcc\u5c71\u677e\u96de
p871
sg7
V1.75
p872
sg9
V1.15
p873
sg10
V1.75
p874
sg12
V33
p875
sg14
V82
p876
sg16
V3.5
p877
sg17
V1.75
p878
sg19
V8
sg20
V1.75
p879
sg22
V158.5
p880
sg24
S'95'
p881
sg26
V+8.5
p882
sg28
V48
p883
sg29
g842
sg31
V95
p884
sg33
S'80'
p885
sg35
V30
p886
sg37
S'302'
p887
sg39
V-8.5
p888
sa(dp889
g3
V\u79cb\u7530\u5317\u90e8\u559c\u6085
p890
sg5
V\u9ad8\u677e\u4e94\u7bad
p891
sg7
V1.75
p892
sg9
V
sg10
V1.75
p893
sg12
V44
p894
sg14
V72
p895
sg16
V
sg17
V1.75
p896
sg19
S''
sg20
V1.75
p897
sg22
V162.5
p898
sg24
S'95'
p899
sg26
V+20.5
p900
sg28
S''
sg29
g842
sg31
V73
p901
sg33
S'72'
p902
sg35
V38
p903
sg37
S'305'
p904
sg39
V-20.5
p905
sa(dp906
g3
V\u6ecb\u8cc0\u6e56\u661f
p907
sg5
V\u65b0\u6f5f\u5929\u9d5d
p908
sg7
V1.75
p909
sg9
V1.45
p910
sg10
V1.75
p911
sg12
V50
p912
sg14
V70
p913
sg16
V2.15
p914
sg17
V1.75
p915
sg19
V12
p916
sg20
V1.75
p917
sg22
V156.5
p918
sg24
S'66'
p919
sg26
V+3.5
p920
sg28
V72
p921
sg29
g842
sg31
V145
p922
sg33
S'70'
p923
sg35
V24
p924
sg37
S'322'
p925
sg39
V-3.5
p926
sa(dp927
g3
V\u5948\u826f\u91ce\u5fc3
p928
sg5
V\u6ff1B\u6d77\u76dc\u8239
p929
sg7
V1.75
p930
sg9
V2.85
p931
sg10
V1.75
p932
sg12
V54
p933
sg14
V124
p934
sg16
V1.25
p935
sg17
V1.75
p936
sg19
V54
p937
sg20
V1.75
p938
sg22
V155.5
p939
sg24
S'77'
p940
sg26
V-6.5
p941
sg28
V4
sg29
g842
sg31
V44
p942
sg33
S'83'
p943
sg35
V16
p944
sg37
S'323'
p945
sg39
V+6.5
p946
sa(dp947
g3
V\u4eac\u90fd\u5275\u69ae
p948
sg5
V\u7fa4\u99ac\u96f7\u9db4
p949
sg7
V1.75
p950
sg9
V1.35
p951
sg10
V1.75
p952
sg12
V45
p953
sg14
V59
p954
sg16
V2.45
p955
sg17
V1.75
p956
sg19
V12
p957
sg20
V1.75
p958
sg22
V150.5
p959
sg24
S'68'
p960
sg26
V+4.5
p961
sg28
V59
p962
sg29
g842
sg31
V129
p963
sg33
S'60'
p964
sg35
V28
p965
sg37
S'324'
p966
sg39
V-4.5
p967
sa(dp968
g3
V\u5927\u5206\u706b\u9b54
p969
sg5
V\u798f\u5cf6\u706b\u50b5\u5238
p970
sg7
V1.75
p971
sg9
V3.1
p972
sg10
V1.75
p973
sg12
V87
p974
sg14
V134
p975
sg16
V1.2
p976
sg17
V1.75
p977
sg19
V54
p978
sg20
V1.75
p979
sg22
V169.5
p980
sg24
S'85'
p981
sg26
V-7.5
p982
sg28
V8
sg29
g842
sg31
V46
p983
sg33
S'98'
p984
sg35
V33
p985
sg37
S'325'
p986
sg39
V+7.5
p987
sa(dp988
g3
V\u798f\u5ca1\u65b0\u92b3
p989
sg5
V\u6771\u4eac\u4e94\u5922
p990
sg7
V1.75
p991
sg9
V
sg10
V1.75
p992
sg12
V30
p993
sg14
V51
p994
sg16
V
sg17
V1.75
p995
sg19
S''
sg20
V1.75
p996
sg22
V153.5
p997
sg24
S'98'
p998
sg26
V+21.5
p999
sg28
S''
sg29
g842
sg31
V63
p1000
sg33
S'73'
p1001
sg35
V29
p1002
sg37
S'326'
p1003
sg39
V-21.5
p1004
sa(dp1005
g3
V\u9752\u68ee\u71b1\u529b
p1006
sg5
V\u5cf6\u6839\u9b54\u8853
p1007
sg7
V1.75
p1008
sg9
V
sg10
V1.75
p1009
sg12
V50
p1010
sg14
V68
p1011
sg16
V
sg17
V1.75
p1012
sg19
S''
sg20
V1.75
p1013
sg22
V154.5
p1014
sg24
S'59'
p1015
sg26
V-10.5
p1016
sg28
S''
sg29
g842
sg31
V77
p1017
sg33
S'78'
p1018
sg35
V22
p1019
sg37
S'327'
p1020
sg39
V+10.5
p1021
sa(dp1022
g3
V\u5927\u962a\u4e03\u798f\u795e
p1023
sg5
V\u5ca9\u624b\u5927\u516c\u725b
p1024
sg7
V1.75
p1025
sg9
V1.25
p1026
sg10
V1.75
p1027
sg12
V43
p1028
sg14
V99
p1029
sg16
V2.85
p1030
sg17
V1.75
p1031
sg19
V7
sg20
V1.75
p1032
sg22
V149.5
p1033
sg24
S'72'
p1034
sg26
V+6.5
p1035
sg28
V41
p1036
sg29
g842
sg31
V64
p1037
sg33
S'67'
p1038
sg35
V25
p1039
sg37
S'328'
p1040
sg39
V-6.5
p1041
sa(dp1042
g3
V\u57fc\u7389\u91ce\u99ac
p1043
sg5
V\u5ee3\u5cf6\u9583\u96fb
p1044
sg7
V1.75
p1045
sg9
V
sg10
V1.75
p1046
sg12
V73
p1047
sg14
V77
p1048
sg16
V
sg17
V1.75
p1049
sg19
S''
sg20
V1.75
p1050
sg22
V184.5
p1051
sg24
S'106'
p1052
sg26
V+10.5
p1053
sg28
S''
sg29
g842
sg31
V76
p1054
sg33
S'81'
p1055
sg35
V39
p1056
sg37
S'329'
p1057
sg39
V-10.5
p1058
sa(dp1059
g3
V\u5927\u962a\u4e03\u798f\u795e
p1060
sg5
V\u5ca9\u624b\u5927\u516c\u725b
p1061
sg7
V1.75
p1062
sg9
V1.35
p1063
sg10
V1.75
p1064
sg12
V63
p1065
sg14
V148
p1066
sg16
V2.45
p1067
sg17
V1.75
p1068
sg19
V15
p1069
sg20
V1.75
p1070
sg22
V145.5
p1071
sg24
S'92'
p1072
sg26
V+4.5
p1073
sg28
V46
p1074
sg29
S'20151212'
p1075
sg31
V105
p1076
sg33
S'77'
p1077
sg35
V46
p1078
sg37
S'307'
p1079
sg39
V-4.5
p1080
sa(dp1081
g3
V\u77f3\u5ddd\u91d1\u6fa4\u6b66\u58eb\u5718
p1082
sg5
V\u52c7\u58eb\u9577\u91ce
p1083
sg7
V1.75
p1084
sg9
V
sg10
V1.75
p1085
sg12
V46
p1086
sg14
V91
p1087
sg16
V
sg17
V1.75
p1088
sg19
S''
sg20
V1.75
p1089
sg22
V153.5
p1090
sg24
S'108'
p1091
sg26
V+12.5
p1092
sg28
S''
sg29
g1075
sg31
V87
p1093
sg33
S'76'
p1094
sg35
V59
p1095
sg37
S'308'
p1096
sg39
V-12.5
p1097
sa(dp1098
g3
V\u5927\u5206\u706b\u9b54
p1099
sg5
V\u798f\u5cf6\u706b\u50b5\u5238
p1100
sg7
V1.75
p1101
sg9
V3.75
p1102
sg10
V1.75
p1103
sg12
V109
p1104
sg14
V117
p1105
sg16
V1.12
p1106
sg17
V1.75
p1107
sg19
V57
p1108
sg20
V1.75
p1109
sg22
V166.5
p1110
sg24
S'105'
p1111
sg26
V-9.5
p1112
sg28
V7
sg29
g1075
sg31
V68
p1113
sg33
S'94'
p1114
sg35
V23
p1115
sg37
S'309'
p1116
sg39
V+9.5
p1117
sa(dp1118
g3
V\u4ed9\u53f089\u4eba
p1119
sg5
V\u6ff1\u677e\u6771\u4e09\u6cb3\u9cf3\u51f0
p1120
sg7
V1.65
p1121
sg9
V1.7
p1122
sg10
V1.75
p1123
sg12
V44
p1124
sg14
V111
p1125
sg16
V1.8
p1126
sg17
V1.85
p1127
sg19
V43
p1128
sg20
V1.75
p1129
sg22
V155.5
p1130
sg24
S'75'
p1131
sg26
V+1.5
p1132
sg28
V30
p1133
sg29
g1075
sg31
V77
p1134
sg33
S'64'
p1135
sg35
V23
p1136
sg37
S'310'
p1137
sg39
V-1.5
p1138
sa(dp1139
g3
V\u57fc\u7389\u91ce\u99ac
p1140
sg5
V\u5ee3\u5cf6\u9583\u96fb
p1141
sg7
V1.75
p1142
sg9
V
sg10
V1.75
p1143
sg12
V88
p1144
sg14
V85
p1145
sg16
V
sg17
V1.75
p1146
sg19
S''
sg20
V1.75
p1147
sg22
V179.5
p1148
sg24
S'104'
p1149
sg26
V+10.5
p1150
sg28
S''
sg29
g1075
sg31
V116
p1151
sg33
S'92'
p1152
sg35
V41
p1153
sg37
S'311'
p1154
sg39
V-10.5
p1155
sa(dp1156
g3
V\u6ecb\u8cc0\u6e56\u661f
p1157
sg5
V\u65b0\u6f5f\u5929\u9d5d
p1158
sg7
V1.75
p1159
sg9
V1.3
p1160
sg10
V1.75
p1161
sg12
V57
p1162
sg14
V82
p1163
sg16
V2.6
p1164
sg17
V1.75
p1165
sg19
V15
p1166
sg20
V1.75
p1167
sg22
V149.5
p1168
sg24
S'88'
p1169
sg26
V+5.5
p1170
sg28
V57
p1171
sg29
g1075
sg31
V129
p1172
sg33
S'100'
p1173
sg35
V24
p1174
sg37
S'312'
p1175
sg39
V-5.5
p1176
sa(dp1177
g3
V\u9752\u68ee\u71b1\u529b
p1178
sg5
V\u5cf6\u6839\u9b54\u8853
p1179
sg7
V1.75
p1180
sg9
V
sg10
V1.75
p1181
sg12
V52
p1182
sg14
V103
p1183
sg16
V
sg17
V1.75
p1184
sg19
S''
sg20
V1.75
p1185
sg22
V158.5
p1186
sg24
S'66'
p1187
sg26
V-11.5
p1188
sg28
S''
sg29
g1075
sg31
V116
p1189
sg33
S'75'
p1190
sg35
V21
p1191
sg37
S'313'
p1192
sg39
V+11.5
p1193
sa(dp1194
g3
V\u5948\u826f\u91ce\u5fc3
p1195
sg5
V\u6ff1B\u6d77\u76dc\u8239
p1196
sg7
V1.75
p1197
sg9
V
sg10
V1.75
p1198
sg12
V54
p1199
sg14
V98
p1200
sg16
V
sg17
V1.75
p1201
sg19
S''
sg20
V1.75
p1202
sg22
V158.5
p1203
sg24
S'80'
p1204
sg26
V-10.5
p1205
sg28
S''
sg29
g1075
sg31
V85
p1206
sg33
S'74'
p1207
sg35
V32
p1208
sg37
S'314'
p1209
sg39
V+10.5
p1210
sa(dp1211
g3
V\u79cb\u7530\u5317\u90e8\u559c\u6085
p1212
sg5
V\u9ad8\u677e\u4e94\u7bad
p1213
sg7
V1.75
p1214
sg9
V
sg10
V1.75
p1215
sg12
V69
p1216
sg14
V103
p1217
sg16
V
sg17
V1.75
p1218
sg19
S''
sg20
V1.75
p1219
sg22
V168.5
p1220
sg24
S'82'
p1221
sg26
V+23.5
p1222
sg28
S''
sg29
g1075
sg31
V95
p1223
sg33
S'64'
p1224
sg35
V33
p1225
sg37
S'315'
p1226
sg39
V-23.5
p1227
sa(dp1228
g3
V\u7409\u7403\u91d1\u5e1d\u7687
p1229
sg5
V\u5bcc\u5c71\u677e\u96de
p1230
sg7
V1.75
p1231
sg9
V1.2
p1232
sg10
V1.75
p1233
sg12
V81
p1234
sg14
V79
p1235
sg16
V3.1
p1236
sg17
V1.75
p1237
sg19
V8
sg20
V1.75
p1238
sg22
V155.5
p1239
sg24
S'93'
p1240
sg26
V+7.5
p1241
sg28
V76
p1242
sg29
g1075
sg31
V158
p1243
sg33
S'77'
p1244
sg35
V24
p1245
sg37
S'316'
p1246
sg39
V-7.5
p1247
sa(dp1248
g3
V\u798f\u5ca1\u65b0\u92b3
p1249
sg5
V\u6771\u4eac\u4e94\u5922
p1250
sg7
V1.75
p1251
sg9
V
sg10
V1.75
p1252
sg12
V46
p1253
sg14
V105
p1254
sg16
V
sg17
V1.75
p1255
sg19
S''
sg20
V1.75
p1256
sg22
V161.5
p1257
sg24
S'77'
p1258
sg26
V+24.5
p1259
sg28
S''
sg29
g1075
sg31
V94
p1260
sg33
S'56'
p1261
sg35
V51
p1262
sg37
S'317'
p1263
sg39
V-24.5
p1264
sa(dp1265
g3
V\u4eac\u90fd\u5275\u69ae
p1266
sg5
V\u7fa4\u99ac\u96f7\u9db4
p1267
sg7
V1.75
p1268
sg9
V1.3
p1269
sg10
V1.75
p1270
sg12
V52
p1271
sg14
V79
p1272
sg16
V2.6
p1273
sg17
V1.75
p1274
sg19
V5
sg20
V1.75
p1275
sg22
V145.5
p1276
sg24
S'91'
p1277
sg26
V+5.5
p1278
sg28
V61
p1279
sg29
g1075
sg31
V186
p1280
sg33
S'88'
p1281
sg35
V41
p1282
sg37
S'318'
p1283
sg39
V-5.5
p1284
sa(dp1285
g3
V\u5cf6\u6839\u9b54\u8853
p1286
sg5
V\u57fc\u7389\u91ce\u99ac
p1287
sg7
V1.75
p1288
sg9
V
sg10
V1.75
p1289
sg12
V89
p1290
sg14
V75
p1291
sg16
V
sg17
V1.75
p1292
sg19
S''
sg20
V1.75
p1293
sg22
V156.5
p1294
sg24
S'101'
p1295
sg26
V+21.5
p1296
sg28
S''
sg29
S'20151206'
p1297
sg31
V102
p1298
sg33
S'75'
p1299
sg35
V24
p1300
sg37
S'308'
p1301
sg39
V-21.5
p1302
sa(dp1303
g3
V\u5bcc\u5c71\u677e\u96de
p1304
sg5
V\u798f\u5ca1\u65b0\u92b3
p1305
sg7
V1.75
p1306
sg9
V1.15
p1307
sg10
V1.75
p1308
sg12
V55
p1309
sg14
V59
p1310
sg16
V3.5
p1311
sg17
V1.75
p1312
sg19
V3
sg20
V1.75
p1313
sg22
V156.5
p1314
sg24
S'91'
p1315
sg26
V+8.5
p1316
sg28
V69
p1317
sg29
g1297
sg31
V152
p1318
sg33
S'69'
p1319
sg35
V21
p1320
sg37
S'309'
p1321
sg39
V-8.5
p1322
sa(dp1323
g3
V\u7409\u7403\u91d1\u5e1d\u7687
p1324
sg5
V\u79cb\u7530\u5317\u90e8\u559c\u6085
p1325
sg7
V1.75
p1326
sg9
V
sg10
V1.75
p1327
sg12
V86
p1328
sg14
V103
p1329
sg16
V
sg17
V1.75
p1330
sg19
S''
sg20
V1.75
p1331
sg22
V162.5
p1332
sg24
S'77'
p1333
sg26
V+12.5
p1334
sg28
S''
sg29
g1297
sg31
V102
p1335
sg33
S'80'
p1336
sg35
V28
p1337
sg37
S'310'
p1338
sg39
V-12.5
p1339
sa(dp1340
g3
V\u9ad8\u677e\u4e94\u7bad
p1341
sg5
V\u9752\u68ee\u71b1\u529b
p1342
sg7
V1.75
p1343
sg9
V
sg10
V1.75
p1344
sg12
V53
p1345
sg14
V115
p1346
sg16
V
sg17
V1.75
p1347
sg19
S''
sg20
V1.75
p1348
sg22
V154.5
p1349
sg24
S'85'
p1350
sg26
V-10.5
p1351
sg28
S''
sg29
g1297
sg31
V54
p1352
sg33
S'87'
p1353
sg35
V21
p1354
sg37
S'311'
p1355
sg39
V+10.5
p1356
sa(dp1357
g3
V\u798f\u5cf6\u706b\u50b5\u5238
p1358
sg5
V\u4eac\u90fd\u5275\u69ae
p1359
sg7
V1.85
p1360
sg9
V1.8
p1361
sg10
V1.75
p1362
sg12
V58
p1363
sg14
V101
p1364
sg16
V1.7
p1365
sg17
V1.65
p1366
sg19
V38
p1367
sg20
V1.75
p1368
sg22
V146.5
p1369
sg24
S'61'
p1370
sg26
V-1.5
p1371
sg28
V41
p1372
sg29
g1297
sg31
V136
p1373
sg33
S'62'
p1374
sg35
V48
p1375
sg37
S'312'
p1376
sg39
V+1.5
p1377
sa(dp1378
g3
V\u6ff1B\u6d77\u76dc\u8239
p1379
sg5
V\u5927\u5206\u706b\u9b54
p1380
sg7
V1.75
p1381
sg9
V
sg10
V1.75
p1382
sg12
V108
p1383
sg14
V99
p1384
sg16
V
sg17
V1.75
p1385
sg19
S''
sg20
V1.75
p1386
sg22
V165.5
p1387
sg24
S'93'
p1388
sg26
V+14.5
p1389
sg28
S''
sg29
g1297
sg31
V124
p1390
sg33
S'98'
p1391
sg35
V35
p1392
sg37
S'313'
p1393
sg39
V-14.5
p1394
sa(dp1395
g3
V\u52c7\u58eb\u9577\u91ce
p1396
sg5
V\u5927\u962a\u4e03\u798f\u795e
p1397
sg7
V1.75
p1398
sg9
V
sg10
V1.75
p1399
sg12
V51
p1400
sg14
V114
p1401
sg16
V
sg17
V1.75
p1402
sg19
S''
sg20
V1.75
p1403
sg22
V152.5
p1404
sg24
S'70'
p1405
sg26
V-13.5
p1406
sg28
S''
sg29
g1297
sg31
V81
p1407
sg33
S'80'
p1408
sg35
V30
p1409
sg37
S'314'
p1410
sg39
V+13.5
p1411
sa(dp1412
g3
V\u7fa4\u99ac\u96f7\u9db4
p1413
sg5
V\u5948\u826f\u91ce\u5fc3
p1414
sg7
V1.75
p1415
sg9
V1.15
p1416
sg10
V1.75
p1417
sg12
V56
p1418
sg14
V70
p1419
sg16
V3.5
p1420
sg17
V1.75
p1421
sg19
V5
sg20
V1.75
p1422
sg22
V151.5
p1423
sg24
S'76'
p1424
sg26
V+8.5
p1425
sg28
V72
p1426
sg29
g1297
sg31
V129
p1427
sg33
S'67'
p1428
sg35
V27
p1429
sg37
S'315'
p1430
sg39
V-8.5
p1431
sa(dp1432
g3
V\u65b0\u6f5f\u5929\u9d5d
p1433
sg5
V\u77f3\u5ddd\u91d1\u6fa4\u6b66\u58eb\u5718
p1434
sg7
V1.75
p1435
sg9
V1.3
p1436
sg10
V1.75
p1437
sg12
V43
p1438
sg14
V94
p1439
sg16
V2.6
p1440
sg17
V1.75
p1441
sg19
V10
p1442
sg20
V1.75
p1443
sg22
V148.5
p1444
sg24
S'59'
p1445
sg26
V+5.5
p1446
sg28
V56
p1447
sg29
g1297
sg31
V139
p1448
sg33
S'89'
p1449
sg35
V45
p1450
sg37
S'316'
p1451
sg39
V-5.5
p1452
sa(dp1453
g3
V\u6771\u4eac\u4e94\u5922
p1454
sg5
V\u6ecb\u8cc0\u6e56\u661f
p1455
sg7
V1.75
p1456
sg9
V
sg10
V1.75
p1457
sg12
V69
p1458
sg14
V89
p1459
sg16
V
sg17
V1.75
p1460
sg19
S''
sg20
V1.75
p1461
sg22
V154.5
p1462
sg24
S'53'
p1463
sg26
V-20.5
p1464
sg28
S''
sg29
S'20151205'
p1465
sg31
V88
p1466
sg33
S'96'
p1467
sg35
V34
p1468
sg37
S'303'
p1469
sg39
V+20.5
p1470
sa(dp1471
g3
V\u5bcc\u5c71\u677e\u96de
p1472
sg5
V\u798f\u5ca1\u65b0\u92b3
p1473
sg7
V1.75
p1474
sg9
V
sg10
V1.75
p1475
sg12
V65
p1476
sg14
V68
p1477
sg16
V
sg17
V1.75
p1478
sg19
S''
sg20
V1.75
p1479
sg22
V152.5
p1480
sg24
S'85'
p1481
sg26
V+13.5
p1482
sg28
S''
sg29
g1465
sg31
V216
p1483
sg33
S'93'
p1484
sg35
V32
p1485
sg37
S'304'
p1486
sg39
V-13.5
p1487
sa(dp1488
g3
V\u798f\u5cf6\u706b\u50b5\u5238
p1489
sg5
V\u4eac\u90fd\u5275\u69ae
p1490
sg7
V1.75
p1491
sg9
V1.6
p1492
sg10
V1.75
p1493
sg12
V72
p1494
sg14
V179
p1495
sg16
V1.9
p1496
sg17
V1.75
p1497
sg19
V38
p1498
sg20
V1.75
p1499
sg22
V145.5
p1500
sg24
S'93'
p1501
sg26
V+1.5
p1502
sg28
V41
p1503
sg29
g1465
sg31
V119
p1504
sg33
S'95'
p1505
sg35
V43
p1506
sg37
S'322'
p1507
sg39
V-1.5
p1508
sa(dp1509
g3
V\u7fa4\u99ac\u96f7\u9db4
p1510
sg5
V\u5948\u826f\u91ce\u5fc3
p1511
sg7
V1.75
p1512
sg9
V
sg10
V1.75
p1513
sg12
V52
p1514
sg14
V88
p1515
sg16
V
sg17
V1.75
p1516
sg19
S''
sg20
V1.75
p1517
sg22
V151.5
p1518
sg24
S'82'
p1519
sg26
V+13.5
p1520
sg28
S''
sg29
g1465
sg31
V122
p1521
sg33
S'78'
p1522
sg35
V26
p1523
sg37
S'323'
p1524
sg39
V-13.5
p1525
sa(dp1526
g3
V\u6ff1B\u6d77\u76dc\u8239
p1527
sg5
V\u5927\u5206\u706b\u9b54
p1528
sg7
V1.75
p1529
sg9
V
sg10
V1.75
p1530
sg12
V112
p1531
sg14
V100
p1532
sg16
V
sg17
V1.75
p1533
sg19
S''
sg20
V1.75
p1534
sg22
V165.5
p1535
sg24
S'97'
p1536
sg26
V+11.5
p1537
sg28
S''
sg29
g1465
sg31
V142
p1538
sg33
S'72'
p1539
sg35
V42
p1540
sg37
S'324'
p1541
sg39
V-11.5
p1542
sa(dp1543
g3
V\u52c7\u58eb\u9577\u91ce
p1544
sg5
V\u5927\u962a\u4e03\u798f\u795e
p1545
sg7
V1.75
p1546
sg9
V3.5
p1547
sg10
V1.75
p1548
sg12
V47
p1549
sg14
V106
p1550
sg16
V1.15
p1551
sg17
V1.75
p1552
sg19
V47
p1553
sg20
V1.75
p1554
sg22
V154.5
p1555
sg24
S'56'
p1556
sg26
V-8.5
p1557
sg28
V10
p1558
sg29
g1465
sg31
V87
p1559
sg33
S'88'
p1560
sg35
V22
p1561
sg37
S'325'
p1562
sg39
V+8.5
p1563
sa(dp1564
g3
V\u65b0\u6f5f\u5929\u9d5d
p1565
sg5
V\u77f3\u5ddd\u91d1\u6fa4\u6b66\u58eb\u5718
p1566
sg7
V1.75
p1567
sg9
V1.15
p1568
sg10
V1.75
p1569
sg12
V53
p1570
sg14
V146
p1571
sg16
V3.5
p1572
sg17
V1.75
p1573
sg19
V11
p1574
sg20
V1.75
p1575
sg22
V149.5
p1576
sg24
S'73'
p1577
sg26
V+8.5
p1578
sg28
V50
p1579
sg29
g1465
sg31
V118
p1580
sg33
S'71'
p1581
sg35
V37
p1582
sg37
S'326'
p1583
sg39
V-8.5
p1584
sa(dp1585
g3
V\u7409\u7403\u91d1\u5e1d\u7687
p1586
sg5
V\u79cb\u7530\u5317\u90e8\u559c\u6085
p1587
sg7
V1.75
p1588
sg9
V1.3
p1589
sg10
V1.75
p1590
sg12
V100
p1591
sg14
V134
p1592
sg16
V2.6
p1593
sg17
V1.75
p1594
sg19
V16
p1595
sg20
V1.75
p1596
sg22
V159.5
p1597
sg24
S'99'
p1598
sg26
V+5.5
p1599
sg28
V60
p1600
sg29
g1465
sg31
V134
p1601
sg33
S'63'
p1602
sg35
V30
p1603
sg37
S'327'
p1604
sg39
V-5.5
p1605
sa(dp1606
g3
V\u5cf6\u6839\u9b54\u8853
p1607
sg5
V\u57fc\u7389\u91ce\u99ac
p1608
sg7
V1.75
p1609
sg9
V
sg10
V1.75
p1610
sg12
V71
p1611
sg14
V65
p1612
sg16
V
sg17
V1.75
p1613
sg19
S''
sg20
V1.75
p1614
sg22
V152.5
p1615
sg24
S'105'
p1616
sg26
V+17.5
p1617
sg28
S''
sg29
g1465
sg31
V223
p1618
sg33
S'76'
p1619
sg35
V27
p1620
sg37
S'328'
p1621
sg39
V-17.5
p1622
sa(dp1623
g3
V\u9ad8\u677e\u4e94\u7bad
p1624
sg5
V\u9752\u68ee\u71b1\u529b
p1625
sg7
V1.75
p1626
sg9
V3.5
p1627
sg10
V1.75
p1628
sg12
V131
p1629
sg14
V130
p1630
sg16
V1.15
p1631
sg17
V1.75
p1632
sg19
V69
p1633
sg20
V1.75
p1634
sg22
V157.5
p1635
sg24
S'61'
p1636
sg26
V-8.5
p1637
sg28
V7
sg29
g1465
sg31
V71
p1638
sg33
S'84'
p1639
sg35
V27
p1640
sg37
S'329'
p1641
sg39
V+8.5
p1642
sa(dp1643
g3
V\u6771\u4eac\u4e94\u5922
p1644
sg5
V\u6ecb\u8cc0\u6e56\u661f
p1645
sg7
V1.75
p1646
sg9
V
sg10
V1.75
p1647
sg12
V155
p1648
sg14
V293
p1649
sg16
V
sg17
V1.75
p1650
sg19
S''
sg20
V1.75
p1651
sg22
V161.5
p1652
sg24
S'63'
p1653
sg26
V-26.5
p1654
sg28
S''
sg29
S'20151204'
p1655
sg31
V138
p1656
sg33
S'73'
p1657
sg35
V84
p1658
sg37
S'308'
p1659
sg39
V+26.5
p1660
sa(dp1661
g3
V\u5ee3\u5cf6\u9583\u96fb
p1662
sg5
V\u4ed9\u53f089\u4eba
p1663
sg7
V1.75
p1664
sg9
V
sg10
V1.75
p1665
sg12
V158
p1666
sg14
V210
p1667
sg16
V
sg17
V1.75
p1668
sg19
S''
sg20
V1.75
p1669
sg22
V187.5
p1670
sg24
S'91'
p1671
sg26
V-31.5
p1672
sg28
S''
sg29
g1655
sg31
V178
p1673
sg33
S'106'
p1674
sg35
V120
p1675
sg37
S'309'
p1676
sg39
V+31.5
p1677
sa(dp1678
g3
V\u5ee3\u5cf6\u9583\u96fb
p1679
sg5
V\u4ed9\u53f089\u4eba
p1680
sg7
V1.75
p1681
sg9
V
sg10
V1.75
p1682
sg12
V204
p1683
sg14
V250
p1684
sg16
V
sg17
V1.75
p1685
sg19
S''
sg20
V1.75
p1686
sg22
V181.5
p1687
sg24
S'82'
p1688
sg26
V-33.5
p1689
sg28
S''
sg29
S'20151203'
p1690
sg31
V185
p1691
sg33
S'107'
p1692
sg35
V136
p1693
sg37
S'300'
p1694
sg39
V+33.5
p1695
sa(dp1696
g3
V\u5cf6\u6839\u9b54\u8853
p1697
sg5
V\u9ad8\u677e\u4e94\u7bad
p1698
sg7
V1.75
p1699
sg9
V
sg10
V1.75
p1700
sg12
V25
p1701
sg14
V43
p1702
sg16
V
sg17
V1.75
p1703
sg19
S''
sg20
V1.75
p1704
sg22
V154.5
p1705
sg24
S'106'
p1706
sg26
V+15.5
p1707
sg28
S''
sg29
S'20151129'
p1708
sg31
V98
p1709
sg33
S'54'
p1710
sg35
V25
p1711
sg37
S'313'
p1712
sg39
V-15.5
p1713
sa(dp1714
g3
V\u77f3\u5ddd\u91d1\u6fa4\u6b66\u58eb\u5718
p1715
sg5
V\u7409\u7403\u91d1\u5e1d\u7687
p1716
sg7
V1.75
p1717
sg9
V
sg10
V1.75
p1718
sg12
V36
p1719
sg14
V106
p1720
sg16
V
sg17
V1.75
p1721
sg19
S''
sg20
V1.75
p1722
sg22
V152.5
p1723
sg24
S'56'
p1724
sg26
V-10.5
p1725
sg28
S''
sg29
g1708
sg31
V49
p1726
sg33
S'69'
p1727
sg35
V22
p1728
sg37
S'314'
p1729
sg39
V+10.5
p1730
sa(dp1731
g3
V\u798f\u5cf6\u706b\u50b5\u5238
p1732
sg5
V\u57fc\u7389\u91ce\u99ac
p1733
sg7
V1.75
p1734
sg9
V
sg10
V1.75
p1735
sg12
V25
p1736
sg14
V40
p1737
sg16
V
sg17
V1.75
p1738
sg19
S''
sg20
V1.75
p1739
sg22
V152.5
p1740
sg24
S'89'
p1741
sg26
V+16.5
p1742
sg28
S''
sg29
g1708
sg31
V101
p1743
sg33
S'73'
p1744
sg35
V28
p1745
sg37
S'315'
p1746
sg39
V-16.5
p1747
sa(dp1748
g3
V\u5948\u826f\u91ce\u5fc3
p1749
sg5
V\u5927\u5206\u706b\u9b54
p1750
sg7
V1.75
p1751
sg9
V1.25
p1752
sg10
V1.75
p1753
sg12
V57
p1754
sg14
V85
p1755
sg16
V2.85
p1756
sg17
V1.75
p1757
sg19
V6
sg20
V1.75
p1758
sg22
V160.5
p1759
sg24
S'85'
p1760
sg26
V+6.5
p1761
sg28
V60
p1762
sg29
g1708
sg31
V118
p1763
sg33
S'87'
p1764
sg35
V26
p1765
sg37
S'316'
p1766
sg39
V-6.5
p1767
sa(dp1768
g3
V\u4eac\u90fd\u5275\u69ae
p1769
sg5
V\u798f\u5ca1\u65b0\u92b3
p1770
sg7
V1.75
p1771
sg9
V
sg10
V1.75
p1772
sg12
V38
p1773
sg14
V75
p1774
sg16
V
sg17
V1.75
p1775
sg19
S''
sg20
V1.75
p1776
sg22
V147.5
p1777
sg24
S'83'
p1778
sg26
V+17.5
p1779
sg28
S''
sg29
g1708
sg31
V78
p1780
sg33
S'63'
p1781
sg35
V32
p1782
sg37
S'336'
p1783
sg39
V-17.5
p1784
sa(dp1785
g3
V\u4ed9\u53f089\u4eba
p1786
sg5
V\u6ff1B\u6d77\u76dc\u8239
p1787
sg7
V1.75
p1788
sg9
V
sg10
V1.75
p1789
sg12
V30
p1790
sg14
V93
p1791
sg16
V
sg17
V1.75
p1792
sg19
S''
sg20
V1.75
p1793
sg22
V158.5
p1794
sg24
S'88'
p1795
sg26
V+10.5
p1796
sg28
S''
sg29
g1708
sg31
V89
p1797
sg33
S'97'
p1798
sg35
V27
p1799
sg37
S'337'
p1800
sg39
V-10.5
p1801
sa(dp1802
g3
V\u9752\u68ee\u71b1\u529b
p1803
sg5
V\u7fa4\u99ac\u96f7\u9db4
p1804
sg7
V1.75
p1805
sg9
V1.45
p1806
sg10
V1.75
p1807
sg12
V33
p1808
sg14
V64
p1809
sg16
V2.15
p1810
sg17
V1.75
p1811
sg19
V11
p1812
sg20
V1.75
p1813
sg22
V153.5
p1814
sg24
S'70'
p1815
sg26
V+3.5
p1816
sg28
V62
p1817
sg29
g1708
sg31
V132
p1818
sg33
S'66'
p1819
sg35
V21
p1820
sg37
S'338'
p1821
sg39
V-3.5
p1822
sa(dp1823
g3
V\u52c7\u58eb\u9577\u91ce
p1824
sg5
V\u6771\u4eac\u4e94\u5922
p1825
sg7
V1.75
p1826
sg9
V
sg10
V1.75
p1827
sg12
V60
p1828
sg14
V47
p1829
sg16
V
sg17
V1.75
p1830
sg19
S''
sg20
V1.75
p1831
sg22
V164.5
p1832
sg24
S'76'
p1833
sg26
V+16.5
p1834
sg28
S''
sg29
g1708
sg31
V98
p1835
sg33
S'65'
p1836
sg35
V26
p1837
sg37
S'339'
p1838
sg39
V-16.5
p1839
sa(dp1840
g3
V\u5927\u962a\u4e03\u798f\u795e
p1841
sg5
V\u6ff1\u677e\u6771\u4e09\u6cb3\u9cf3\u51f0
p1842
sg7
V1.75
p1843
sg9
V3.5
p1844
sg10
V1.75
p1845
sg12
V56
p1846
sg14
V98
p1847
sg16
V1.15
p1848
sg17
V1.75
p1849
sg19
V49
p1850
sg20
V1.75
p1851
sg22
V145.5
p1852
sg24
S'57'
p1853
sg26
V-8.5
p1854
sg28
V7
sg29
g1708
sg31
V93
p1855
sg33
S'62'
p1856
sg35
V26
p1857
sg37
S'340'
p1858
sg39
V+8.5
p1859
sa(dp1860
g3
V\u5ca9\u624b\u5927\u516c\u725b
p1861
sg5
V\u79cb\u7530\u5317\u90e8\u559c\u6085
p1862
sg7
V1.75
p1863
sg9
V2.15
p1864
sg10
V1.75
p1865
sg12
V59
p1866
sg14
V141
p1867
sg16
V1.45
p1868
sg17
V1.75
p1869
sg19
V69
p1870
sg20
V1.75
p1871
sg22
V155.5
p1872
sg24
S'77'
p1873
sg26
V-3.5
p1874
sg28
V12
p1875
sg29
g1708
sg31
V57
p1876
sg33
S'94'
p1877
sg35
V14
p1878
sg37
S'341'
p1879
sg39
V+3.5
p1880
sa(dp1881
g3
V\u6ecb\u8cc0\u6e56\u661f
p1882
sg5
V\u5ee3\u5cf6\u9583\u96fb
p1883
sg7
V1.75
p1884
sg9
V
sg10
V1.75
p1885
sg12
V95
p1886
sg14
V78
p1887
sg16
V
sg17
V1.75
p1888
sg19
S''
sg20
V1.75
p1889
sg22
V174.5
p1890
sg24
S'125'
p1891
sg26
V+27.5
p1892
sg28
S''
sg29
g1708
sg31
V83
p1893
sg33
S'58'
p1894
sg35
V26
p1895
sg37
S'378'
p1896
sg39
V-27.5
p1897
sa(dp1898
g3
V\u65b0\u6f5f\u5929\u9d5d
p1899
sg5
V\u5bcc\u5c71\u677e\u96de
p1900
sg7
V1.75
p1901
sg9
V2.6
p1902
sg10
V1.75
p1903
sg12
V67
p1904
sg14
V113
p1905
sg16
V1.3
p1906
sg17
V1.75
p1907
sg19
V55
p1908
sg20
V1.75
p1909
sg22
V150.5
p1910
sg24
S'86'
p1911
sg26
V-5.5
p1912
sg28
V16
p1913
sg29
g1708
sg31
V99
p1914
sg33
S'73'
p1915
sg35
V30
p1916
sg37
S'379'
p1917
sg39
V+5.5
p1918
sa(dp1919
g3
V\u4eac\u90fd\u5275\u69ae
p1920
sg5
V\u798f\u5ca1\u65b0\u92b3
p1921
sg7
V1.75
p1922
sg9
V
sg10
V1.75
p1923
sg12
V61
p1924
sg14
V107
p1925
sg16
V
sg17
V1.75
p1926
sg19
S''
sg20
V1.75
p1927
sg22
V143.5
p1928
sg24
S'82'
p1929
sg26
V+18.5
p1930
sg28
S''
sg29
S'20151128'
p1931
sg31
V133
p1932
sg33
S'66'
p1933
sg35
V57
p1934
sg37
S'335'
p1935
sg39
V-18.5
p1936
sa(dp1937
g3
V\u5927\u962a\u4e03\u798f\u795e
p1938
sg5
V\u6ff1\u677e\u6771\u4e09\u6cb3\u9cf3\u51f0
p1939
sg7
V1.75
p1940
sg9
V2.45
p1941
sg10
V1.75
p1942
sg12
V54
p1943
sg14
V185
p1944
sg16
V1.35
p1945
sg17
V1.75
p1946
sg19
V90
p1947
sg20
V1.75
p1948
sg22
V143.5
p1949
sg24
S'73'
p1950
sg26
V-4.5
p1951
sg28
V13
p1952
sg29
g1931
sg31
V84
p1953
sg33
S'79'
p1954
sg35
V49
p1955
sg37
S'351'
p1956
sg39
V+4.5
p1957
sa(dp1958
g3
V\u77f3\u5ddd\u91d1\u6fa4\u6b66\u58eb\u5718
p1959
sg5
V\u7409\u7403\u91d1\u5e1d\u7687
p1960
sg7
V1.75
p1961
sg9
V2.05
p1962
sg10
V1.75
p1963
sg12
V56
p1964
sg14
V188
p1965
sg16
V1.5
p1966
sg17
V1.75
p1967
sg19
V78
p1968
sg20
V1.75
p1969
sg22
V150.5
p1970
sg24
S'59'
p1971
sg26
V-2.5
p1972
sg28
V15
p1973
sg29
g1931
sg31
V72
p1974
sg33
S'91'
p1975
sg35
V32
p1976
sg37
S'352'
p1977
sg39
V+2.5
p1978
sa(dp1979
g3
V\u5ca9\u624b\u5927\u516c\u725b
p1980
sg5
V\u79cb\u7530\u5317\u90e8\u559c\u6085
p1981
sg7
V1.75
p1982
sg9
V2.15
p1983
sg10
V1.75
p1984
sg12
V85
p1985
sg14
V197
p1986
sg16
V1.45
p1987
sg17
V1.75
p1988
sg19
V92
p1989
sg20
V1.75
p1990
sg22
V153.5
p1991
sg24
S'83'
p1992
sg26
V-3.5
p1993
sg28
V17
p1994
sg29
g1931
sg31
V66
p1995
sg33
S'78'
p1996
sg35
V26
p1997
sg37
S'353'
p1998
sg39
V+3.5
p1999
sa(dp2000
g3
V\u6ecb\u8cc0\u6e56\u661f
p2001
sg5
V\u5ee3\u5cf6\u9583\u96fb
p2002
sg7
V1.75
p2003
sg9
V
sg10
V1.75
p2004
sg12
V74
p2005
sg14
V69
p2006
sg16
V
sg17
V1.75
p2007
sg19
S''
sg20
V1.75
p2008
sg22
V166.5
p2009
sg24
S'108'
p2010
sg26
V+28.5
p2011
sg28
S''
sg29
g1931
sg31
V64
p2012
sg33
S'86'
p2013
sg35
V27
p2014
sg37
S'354'
p2015
sg39
V-28.5
p2016
sa(dp2017
g3
V\u65b0\u6f5f\u5929\u9d5d
p2018
sg5
V\u5bcc\u5c71\u677e\u96de
p2019
sg7
V1.75
p2020
sg9
V1.5
p2021
sg10
V1.75
p2022
sg12
V68
p2023
sg14
V116
p2024
sg16
V2.05
p2025
sg17
V1.75
p2026
sg19
V22
p2027
sg20
V1.75
p2028
sg22
V153.5
p2029
sg24
S'59'
p2030
sg26
V+2.5
p2031
sg28
V49
p2032
sg29
g1931
sg31
V112
p2033
sg33
S'80'
p2034
sg35
V20
p2035
sg37
S'355'
p2036
sg39
V-2.5
p2037
sa(dp2038
g3
V\u52c7\u58eb\u9577\u91ce
p2039
sg5
V\u6771\u4eac\u4e94\u5922
p2040
sg7
V1.75
p2041
sg9
V
sg10
V1.75
p2042
sg12
V34
p2043
sg14
V49
p2044
sg16
V
sg17
V1.75
p2045
sg19
S''
sg20
V1.75
p2046
sg22
V159.5
p2047
sg24
S'106'
p2048
sg26
V+14.5
p2049
sg28
S''
sg29
g1931
sg31
V163
p2050
sg33
S'87'
p2051
sg35
V38
p2052
sg37
S'356'
p2053
sg39
V-14.5
p2054
sa(dp2055
g3
V\u4ed9\u53f089\u4eba
p2056
sg5
V\u6ff1B\u6d77\u76dc\u8239
p2057
sg7
V1.75
p2058
sg9
V1.15
p2059
sg10
V1.75
p2060
sg12
V56
p2061
sg14
V75
p2062
sg16
V3.5
p2063
sg17
V1.75
p2064
sg19
V7
sg20
V1.75
p2065
sg22
V161.5
p2066
sg24
S'84'
p2067
sg26
V+8.5
p2068
sg28
V61
p2069
sg29
g1931
sg31
V113
p2070
sg33
S'61'
p2071
sg35
V35
p2072
sg37
S'357'
p2073
sg39
V-8.5
p2074
sa(dp2075
g3
V\u9752\u68ee\u71b1\u529b
p2076
sg5
V\u7fa4\u99ac\u96f7\u9db4
p2077
sg7
V1.75
p2078
sg9
V1.5
p2079
sg10
V1.75
p2080
sg12
V57
p2081
sg14
V73
p2082
sg16
V2.05
p2083
sg17
V1.75
p2084
sg19
V16
p2085
sg20
V1.75
p2086
sg22
V154.5
p2087
sg24
S'75'
p2088
sg26
V+2.5
p2089
sg28
V38
p2090
sg29
g1931
sg31
V97
p2091
sg33
S'77'
p2092
sg35
V18
p2093
sg37
S'358'
p2094
sg39
V-2.5
p2095
sa(dp2096
g3
V\u5948\u826f\u91ce\u5fc3
p2097
sg5
V\u5927\u5206\u706b\u9b54
p2098
sg7
V1.75
p2099
sg9
V1.45
p2100
sg10
V1.75
p2101
sg12
V44
p2102
sg14
V47
p2103
sg16
V2.15
p2104
sg17
V1.75
p2105
sg19
V8
sg20
V1.75
p2106
sg22
V158.5
p2107
sg24
S'87'
p2108
sg26
V+3.5
p2109
sg28
V47
p2110
sg29
g1931
sg31
V118
p2111
sg33
S'91'
p2112
sg35
V29
p2113
sg37
S'359'
p2114
sg39
V-3.5
p2115
sa(dp2116
g3
V\u798f\u5cf6\u706b\u50b5\u5238
p2117
sg5
V\u57fc\u7389\u91ce\u99ac
p2118
sg7
V1.75
p2119
sg9
V
sg10
V1.75
p2120
sg12
V36
p2121
sg14
V56
p2122
sg16
V
sg17
V1.75
p2123
sg19
S''
sg20
V1.75
p2124
sg22
V157.5
p2125
sg24
S'84'
p2126
sg26
V+15.5
p2127
sg28
S''
sg29
g1931
sg31
V121
p2128
sg33
S'64'
p2129
sg35
V27
p2130
sg37
S'360'
p2131
sg39
V-15.5
p2132
sa(dp2133
g3
V\u5cf6\u6839\u9b54\u8853
p2134
sg5
V\u9ad8\u677e\u4e94\u7bad
p2135
sg7
V1.75
p2136
sg9
V
sg10
V1.75
p2137
sg12
V47
p2138
sg14
V62
p2139
sg16
V
sg17
V1.75
p2140
sg19
S''
sg20
V1.75
p2141
sg22
V153.5
p2142
sg24
S'96'
p2143
sg26
V+11.5
p2144
sg28
S''
sg29
g1931
sg31
V123
p2145
sg33
S'59'
p2146
sg35
V29
p2147
sg37
S'361'
p2148
sg39
V-11.5
p2149
sa(dp2150
g3
V\u6ff1\u677e\u6771\u4e09\u6cb3\u9cf3\u51f0
p2151
sg5
V\u5948\u826f\u91ce\u5fc3
p2152
sg7
V1.75
p2153
sg9
V
sg10
V1.75
p2154
sg12
V71
p2155
sg14
V88
p2156
sg16
V
sg17
V1.75
p2157
sg19
S''
sg20
V1.75
p2158
sg22
V140.5
p2159
sg24
S'109'
p2160
sg26
V+14.5
p2161
sg28
S''
sg29
S'20151123'
p2162
sg31
V109
p2163
sg33
S'63'
p2164
sg35
V75
p2165
sg37
S'300'
p2166
sg39
V-14.5
p2167
sa(dp2168
g3
V\u5bcc\u5c71\u677e\u96de
p2169
sg5
V\u52c7\u58eb\u9577\u91ce
p2170
sg7
V1.75
p2171
sg9
V
sg10
V1.75
p2172
sg12
V95
p2173
sg14
V74
p2174
sg16
V
sg17
V1.75
p2175
sg19
S''
sg20
V1.75
p2176
sg22
V154.5
p2177
sg24
S'99'
p2178
sg26
V+14.5
p2179
sg28
S''
sg29
S'20151122'
p2180
sg31
V92
p2181
sg33
S'70'
p2182
sg35
V16
p2183
sg37
S'327'
p2184
sg39
V-14.5
p2185
sa(dp2186
g3
V\u7fa4\u99ac\u96f7\u9db4
p2187
sg5
V\u6771\u4eac\u4e94\u5922
p2188
sg7
V1.75
p2189
sg9
V
sg10
V1.75
p2190
sg12
V41
p2191
sg14
V92
p2192
sg16
V
sg17
V1.75
p2193
sg19
S''
sg20
V1.75
p2194
sg22
V154.5
p2195
sg24
S'106'
p2196
sg26
V+21.5
p2197
sg28
S''
sg29
g2180
sg31
V121
p2198
sg33
S'67'
p2199
sg35
V42
p2200
sg37
S'328'
p2201
sg39
V-21.5
p2202
sa(dp2203
g3
V\u7409\u7403\u91d1\u5e1d\u7687
p2204
sg5
V\u4eac\u90fd\u5275\u69ae
p2205
sg7
V1.75
p2206
sg9
V1.5
p2207
sg10
V1.75
p2208
sg12
V59
p2209
sg14
V57
p2210
sg16
V2.05
p2211
sg17
V1.75
p2212
sg19
V15
p2213
sg20
V1.75
p2214
sg22
V144.5
p2215
sg24
S'85'
p2216
sg26
V+2.5
p2217
sg28
V65
p2218
sg29
g2180
sg31
V185
p2219
sg33
S'87'
p2220
sg35
V38
p2221
sg37
S'333'
p2222
sg39
V-2.5
p2223
sa(dp2224
g3
V\u5927\u5206\u706b\u9b54
p2225
sg5
V\u6ecb\u8cc0\u6e56\u661f
p2226
sg7
V1.75
p2227
sg9
V3.75
p2228
sg10
V1.75
p2229
sg12
V70
p2230
sg14
V84
p2231
sg16
V1.12
p2232
sg17
V1.75
p2233
sg19
V49
p2234
sg20
V1.75
p2235
sg22
V159.5
p2236
sg24
S'67'
p2237
sg26
V-9.5
p2238
sg28
V3
sg29
g2180
sg31
V61
p2239
sg33
S'102'
p2240
sg35
V24
p2241
sg37
S'335'
p2242
sg39
V+9.5
p2243
sa(dp2244
g3
V\u5ca9\u624b\u5927\u516c\u725b
p2245
sg5
V\u798f\u5cf6\u706b\u50b5\u5238
p2246
sg7
V1.75
p2247
sg9
V1.3
p2248
sg10
V1.75
p2249
sg12
V34
p2250
sg14
V71
p2251
sg16
V2.6
p2252
sg17
V1.75
p2253
sg19
V8
sg20
V1.75
p2254
sg22
V151.5
p2255
sg24
S'69'
p2256
sg26
V+5.5
p2257
sg28
V62
p2258
sg29
g2180
sg31
V132
p2259
sg33
S'63'
p2260
sg35
V25
p2261
sg37
S'336'
p2262
sg39
V-5.5
p2263
sa(dp2264
g3
V\u5927\u962a\u4e03\u798f\u795e
p2265
sg5
V\u77f3\u5ddd\u91d1\u6fa4\u6b66\u58eb\u5718
p2266
sg7
V1.75
p2267
sg9
V1.35
p2268
sg10
V1.75
p2269
sg12
V45
p2270
sg14
V49
p2271
sg16
V2.45
p2272
sg17
V1.75
p2273
sg19
V10
p2274
sg20
V1.75
p2275
sg22
V146.5
p2276
sg24
S'74'
p2277
sg26
V+4.5
p2278
sg28
V76
p2279
sg29
g2180
sg31
V181
p2280
sg33
S'68'
p2281
sg35
V24
p2282
sg37
S'337'
p2283
sg39
V-4.5
p2284
sa(dp2285
g3
V\u57fc\u7389\u91ce\u99ac
p2286
sg5
V\u4ed9\u53f089\u4eba
p2287
sg7
V1.75
p2288
sg9
V
sg10
V1.75
p2289
sg12
V54
p2290
sg14
V70
p2291
sg16
V
sg17
V1.75
p2292
sg19
S''
sg20
V1.75
p2293
sg22
V160.5
p2294
sg24
S'65'
p2295
sg26
V-17.5
p2296
sg28
S''
sg29
g2180
sg31
V100
p2297
sg33
S'88'
p2298
sg35
V26
p2299
sg37
S'338'
p2300
sg39
V+17.5
p2301
sa(dp2302
g3
V\u798f\u5ca1\u65b0\u92b3
p2303
sg5
V\u9ad8\u677e\u4e94\u7bad
p2304
sg7
V1.75
p2305
sg9
V1.3
p2306
sg10
V1.75
p2307
sg12
V23
p2308
sg14
V45
p2309
sg16
V2.6
p2310
sg17
V1.75
p2311
sg19
V6
sg20
V1.75
p2312
sg22
V154.5
p2313
sg24
S'73'
p2314
sg26
V+5.5
p2315
sg28
V51
p2316
sg29
g2180
sg31
V99
p2317
sg33
S'61'
p2318
sg35
V21
p2319
sg37
S'339'
p2320
sg39
V-5.5
p2321
sa(dp2322
g3
V\u79cb\u7530\u5317\u90e8\u559c\u6085
p2323
sg5
V\u65b0\u6f5f\u5929\u9d5d
p2324
sg7
V1.75
p2325
sg9
V1.25
p2326
sg10
V1.75
p2327
sg12
V71
p2328
sg14
V74
p2329
sg16
V2.85
p2330
sg17
V1.75
p2331
sg19
V10
p2332
sg20
V1.75
p2333
sg22
V157.5
p2334
sg24
S'91'
p2335
sg26
V+6.5
p2336
sg28
V49
p2337
sg29
g2180
sg31
V112
p2338
sg33
S'67'
p2339
sg35
V18
p2340
sg37
S'340'
p2341
sg39
V-6.5
p2342
sa(dp2343
g3
V\u6ff1B\u6d77\u76dc\u8239
p2344
sg5
V\u9752\u68ee\u71b1\u529b
p2345
sg7
V1.75
p2346
sg9
V1.2
p2347
sg10
V1.75
p2348
sg12
V57
p2349
sg14
V77
p2350
sg16
V3.1
p2351
sg17
V1.75
p2352
sg19
V6
sg20
V1.75
p2353
sg22
V158.5
p2354
sg24
S'93'
p2355
sg26
V+7.5
p2356
sg28
V47
p2357
sg29
g2180
sg31
V91
p2358
sg33
S'82'
p2359
sg35
V28
p2360
sg37
S'377'
p2361
sg39
V-7.5
p2362
sa(dp2363
g3
V\u6ff1\u677e\u6771\u4e09\u6cb3\u9cf3\u51f0
p2364
sg5
V\u5948\u826f\u91ce\u5fc3
p2365
sg7
V1.75
p2366
sg9
V
sg10
V1.75
p2367
sg12
V60
p2368
sg14
V87
p2369
sg16
V
sg17
V1.75
p2370
sg19
S''
sg20
V1.75
p2371
sg22
V143.5
p2372
sg24
S'64'
p2373
sg26
V+17.5
p2374
sg28
S''
sg29
g2180
sg31
V140
p2375
sg33
S'55'
p2376
sg35
V54
p2377
sg37
S'378'
p2378
sg39
V-17.5
p2379
sa(dp2380
g3
V\u5ee3\u5cf6\u9583\u96fb
p2381
sg5
V\u5cf6\u6839\u9b54\u8853
p2382
sg7
V1.75
p2383
sg9
V
sg10
V1.75
p2384
sg12
V62
p2385
sg14
V75
p2386
sg16
V
sg17
V1.75
p2387
sg19
S''
sg20
V1.75
p2388
sg22
V169.5
p2389
sg24
S'76'
p2390
sg26
V-33.5
p2391
sg28
S''
sg29
S'20151121'
p2392
sg31
V98
p2393
sg33
S'123'
p2394
sg35
V41
p2395
sg37
S'300'
p2396
sg39
V+33.5
p2397
sa(dp2398
g3
V\u79cb\u7530\u5317\u90e8\u559c\u6085
p2399
sg5
V\u65b0\u6f5f\u5929\u9d5d
p2400
sg7
V1.75
p2401
sg9
V1.45
p2402
sg10
V1.75
p2403
sg12
V51
p2404
sg14
V103
p2405
sg16
V2.15
p2406
sg17
V1.75
p2407
sg19
V18
p2408
sg20
V1.75
p2409
sg22
V153.5
p2410
sg24
S'93'
p2411
sg26
V+3.5
p2412
sg28
V41
p2413
sg29
g2392
sg31
V90
p2414
sg33
S'73'
p2415
sg35
V25
p2416
sg37
S'308'
p2417
sg39
V-3.5
p2418
sa(dp2419
g3
V\u5927\u962a\u4e03\u798f\u795e
p2420
sg5
V\u77f3\u5ddd\u91d1\u6fa4\u6b66\u58eb\u5718
p2421
sg7
V1.75
p2422
sg9
V1.15
p2423
sg10
V1.75
p2424
sg12
V62
p2425
sg14
V137
p2426
sg16
V3.5
p2427
sg17
V1.75
p2428
sg19
V6
sg20
V1.75
p2429
sg22
V146.5
p2430
sg24
S'67'
p2431
sg26
V+8.5
p2432
sg28
V53
p2433
sg29
g2392
sg31
V101
p2434
sg33
S'73'
p2435
sg35
V42
p2436
sg37
S'309'
p2437
sg39
V-8.5
p2438
sa(dp2439
g3
V\u5bcc\u5c71\u677e\u96de
p2440
sg5
V\u52c7\u58eb\u9577\u91ce
p2441
sg7
V1.75
p2442
sg9
V
sg10
V1.75
p2443
sg12
V54
p2444
sg14
V73
p2445
sg16
V
sg17
V1.75
p2446
sg19
S''
sg20
V1.75
p2447
sg22
V154.5
p2448
sg24
S'90'
p2449
sg26
V+10.5
p2450
sg28
S''
sg29
g2392
sg31
V141
p2451
sg33
S'63'
p2452
sg35
V37
p2453
sg37
S'310'
p2454
sg39
V-10.5
p2455
sa(dp2456
g3
V\u7fa4\u99ac\u96f7\u9db4
p2457
sg5
V\u6771\u4eac\u4e94\u5922
p2458
sg7
V1.75
p2459
sg9
V
sg10
V1.75
p2460
sg12
V52
p2461
sg14
V84
p2462
sg16
V
sg17
V1.75
p2463
sg19
S''
sg20
V1.75
p2464
sg22
V154.5
p2465
sg24
S'87'
p2466
sg26
V+22.5
p2467
sg28
S''
sg29
g2392
sg31
V170
p2468
sg33
S'60'
p2469
sg35
V32
p2470
sg37
S'311'
p2471
sg39
V-22.5
p2472
sa(dp2473
g3
V\u6ff1B\u6d77\u76dc\u8239
p2474
sg5
V\u9752\u68ee\u71b1\u529b
p2475
sg7
V1.75
p2476
sg9
V1.35
p2477
sg10
V1.75
p2478
sg12
V49
p2479
sg14
V93
p2480
sg16
V2.45
p2481
sg17
V1.75
p2482
sg19
V13
p2483
sg20
V1.75
p2484
sg22
V151.5
p2485
sg24
S'104'
p2486
sg26
V+4.5
p2487
sg28
V59
p2488
sg29
g2392
sg31
V124
p2489
sg33
S'87'
p2490
sg35
V40
p2491
sg37
S'312'
p2492
sg39
V-4.5
p2493
sa(dp2494
g3
V\u5927\u5206\u706b\u9b54
p2495
sg5
V\u6ecb\u8cc0\u6e56\u661f
p2496
sg7
V1.75
p2497
sg9
V
sg10
V1.75
p2498
sg12
V72
p2499
sg14
V127
p2500
sg16
V
sg17
V1.75
p2501
sg19
S''
sg20
V1.75
p2502
sg22
V157.5
p2503
sg24
S'84'
p2504
sg26
V-11.5
p2505
sg28
S''
sg29
g2392
sg31
V67
p2506
sg33
S'91'
p2507
sg35
V22
p2508
sg37
S'313'
p2509
sg39
V+11.5
p2510
sa(dp2511
g3
V\u57fc\u7389\u91ce\u99ac
p2512
sg5
V\u4ed9\u53f089\u4eba
p2513
sg7
V1.75
p2514
sg9
V
sg10
V1.75
p2515
sg12
V105
p2516
sg14
V104
p2517
sg16
V
sg17
V1.75
p2518
sg19
S''
sg20
V1.75
p2519
sg22
V161.5
p2520
sg24
S'74'
p2521
sg26
V-23.5
p2522
sg28
S''
sg29
g2392
sg31
V94
p2523
sg33
S'77'
p2524
sg35
V32
p2525
sg37
S'314'
p2526
sg39
V+23.5
p2527
sa(dp2528
g3
V\u5ca9\u624b\u5927\u516c\u725b
p2529
sg5
V\u798f\u5cf6\u706b\u50b5\u5238
p2530
sg7
V1.75
p2531
sg9
V1.35
p2532
sg10
V1.75
p2533
sg12
V56
p2534
sg14
V69
p2535
sg16
V2.45
p2536
sg17
V1.75
p2537
sg19
V6
sg20
V1.75
p2538
sg22
V154.5
p2539
sg24
S'67'
p2540
sg26
V+4.5
p2541
sg28
V72
p2542
sg29
g2392
sg31
V166
p2543
sg33
S'70'
p2544
sg35
V27
p2545
sg37
S'315'
p2546
sg39
V-4.5
p2547
sa(dp2548
g3
V\u798f\u5ca1\u65b0\u92b3
p2549
sg5
V\u9ad8\u677e\u4e94\u7bad
p2550
sg7
V1.75
p2551
sg9
V1.25
p2552
sg10
V1.75
p2553
sg12
V63
p2554
sg14
V88
p2555
sg16
V2.85
p2556
sg17
V1.75
p2557
sg19
V10
p2558
sg20
V1.75
p2559
sg22
V156.5
p2560
sg24
S'71'
p2561
sg26
V+6.5
p2562
sg28
V64
p2563
sg29
g2392
sg31
V126
p2564
sg33
S'72'
p2565
sg35
V34
p2566
sg37
S'316'
p2567
sg39
V-6.5
p2568
sa(dp2569
g3
V\u7409\u7403\u91d1\u5e1d\u7687
p2570
sg5
V\u4eac\u90fd\u5275\u69ae
p2571
sg7
V1.75
p2572
sg9
V1.3
p2573
sg10
V1.75
p2574
sg12
V56
p2575
sg14
V95
p2576
sg16
V2.6
p2577
sg17
V1.75
p2578
sg19
V18
p2579
sg20
V1.75
p2580
sg22
V143.5
p2581
sg24
S'70'
p2582
sg26
V+5.5
p2583
sg28
V65
p2584
sg29
g2392
sg31
V150
p2585
sg33
S'72'
p2586
sg35
V66
p2587
sg37
S'317'
p2588
sg39
V-5.5
p2589
sa(dp2590
g3
V\u5ee3\u5cf6\u9583\u96fb
p2591
sg5
V\u5cf6\u6839\u9b54\u8853
p2592
sg7
V1.75
p2593
sg9
V
sg10
V1.75
p2594
sg12
V153
p2595
sg14
V111
p2596
sg16
V
sg17
V1.75
p2597
sg19
S''
sg20
V1.75
p2598
sg22
V169.5
p2599
sg24
S'62'
p2600
sg26
V-29.5
p2601
sg28
S''
sg29
S'20151120'
p2602
sg31
V251
p2603
sg33
S'115'
p2604
sg35
V128
p2605
sg37
S'319'
p2606
sg39
V+29.5
p2607
sa(dp2608
g3
V\u5cf6\u6839\u9b54\u8853
p2609
sg5
V\u798f\u5ca1\u65b0\u92b3
p2610
sg7
V1.75
p2611
sg9
V1.3
p2612
sg10
V1.75
p2613
sg12
V23
p2614
sg14
V56
p2615
sg16
V2.6
p2616
sg17
V1.75
p2617
sg19
V5
sg20
V1.75
p2618
sg22
V155.5
p2619
sg24
S'76'
p2620
sg26
V+5.5
p2621
sg28
V40
p2622
sg29
S'20151115'
p2623
sg31
V100
p2624
sg33
S'65'
p2625
sg35
V35
p2626
sg37
S'334'
p2627
sg39
V-5.5
p2628
sa(dp2629
g3
V\u4ed9\u53f089\u4eba
p2630
sg5
V\u5ca9\u624b\u5927\u516c\u725b
p2631
sg7
V1.75
p2632
sg9
V1.5
p2633
sg10
V1.75
p2634
sg12
V35
p2635
sg14
V94
p2636
sg16
V2.05
p2637
sg17
V1.75
p2638
sg19
V21
p2639
sg20
V1.75
p2640
sg22
V158.5
p2641
sg24
S'71'
p2642
sg26
V+2.5
p2643
sg28
V35
p2644
sg29
g2623
sg31
V112
p2645
sg33
S'88'
p2646
sg35
V29
p2647
sg37
S'335'
p2648
sg39
V-2.5
p2649
sa(dp2650
g3
V\u6ecb\u8cc0\u6e56\u661f
p2651
sg5
V\u6ff1\u677e\u6771\u4e09\u6cb3\u9cf3\u51f0
p2652
sg7
V1.75
p2653
sg9
V2.15
p2654
sg10
V1.75
p2655
sg12
V58
p2656
sg14
V109
p2657
sg16
V1.45
p2658
sg17
V1.75
p2659
sg19
V39
p2660
sg20
V1.75
p2661
sg22
V147.5
p2662
sg24
S'58'
p2663
sg26
V-3.5
p2664
sg28
V21
p2665
sg29
g2623
sg31
V109
p2666
sg33
S'65'
p2667
sg35
V35
p2668
sg37
S'336'
p2669
sg39
V+3.5
p2670
sa(dp2671
g3
V\u52c7\u58eb\u9577\u91ce
p2672
sg5
V\u79cb\u7530\u5317\u90e8\u559c\u6085
p2673
sg7
V1.75
p2674
sg9
V2.85
p2675
sg10
V1.75
p2676
sg12
V93
p2677
sg14
V103
p2678
sg16
V1.25
p2679
sg17
V1.75
p2680
sg19
V55
p2681
sg20
V1.75
p2682
sg22
V163.5
p2683
sg24
S'78'
p2684
sg26
V-6.5
p2685
sg28
V4
sg29
g2623
sg31
V83
p2686
sg33
S'93'
p2687
sg35
V18
p2688
sg37
S'337'
p2689
sg39
V+6.5
p2690
sa(dp2691
g3
V\u6ff1B\u6d77\u76dc\u8239
p2692
sg5
V\u7fa4\u99ac\u96f7\u9db4
p2693
sg7
V1.75
p2694
sg9
V1.45
p2695
sg10
V1.75
p2696
sg12
V34
p2697
sg14
V36
p2698
sg16
V2.15
p2699
sg17
V1.75
p2700
sg19
V7
sg20
V1.75
p2701
sg22
V150.5
p2702
sg24
S'85'
p2703
sg26
V+3.5
p2704
sg28
V64
p2705
sg29
g2623
sg31
V186
p2706
sg33
S'64'
p2707
sg35
V35
p2708
sg37
S'345'
p2709
sg39
V-3.5
p2710
sa(dp2711
g3
V\u6771\u4eac\u4e94\u5922
p2712
sg5
V\u5bcc\u5c71\u677e\u96de
p2713
sg7
V1.75
p2714
sg9
V
sg10
V1.75
p2715
sg12
V55
p2716
sg14
V86
p2717
sg16
V
sg17
V1.75
p2718
sg19
S''
sg20
V1.75
p2719
sg22
V154.5
p2720
sg24
S'65'
p2721
sg26
V-27.5
p2722
sg28
S''
sg29
g2623
sg31
V89
p2723
sg33
S'93'
p2724
sg35
V36
p2725
sg37
S'346'
p2726
sg39
V+27.5
p2727
sa(dp2728
g3
V\u5948\u826f\u91ce\u5fc3
p2729
sg5
V\u77f3\u5ddd\u91d1\u6fa4\u6b66\u58eb\u5718
p2730
sg7
V1.75
p2731
sg9
V2.15
p2732
sg10
V1.75
p2733
sg12
V46
p2734
sg14
V142
p2735
sg16
V1.45
p2736
sg17
V1.75
p2737
sg19
V63
p2738
sg20
V1.75
p2739
sg22
V150.5
p2740
sg24
S'74'
p2741
sg26
V-3.5
p2742
sg28
V10
p2743
sg29
g2623
sg31
V60
p2744
sg33
S'75'
p2745
sg35
V23
p2746
sg37
S'369'
p2747
sg39
V+3.5
p2748
sa(dp2749
g3
V\u9752\u68ee\u71b1\u529b
p2750
sg5
V\u57fc\u7389\u91ce\u99ac
p2751
sg7
V1.75
p2752
sg9
V
sg10
V1.75
p2753
sg12
V52
p2754
sg14
V95
p2755
sg16
V
sg17
V1.75
p2756
sg19
S''
sg20
V1.75
p2757
sg22
V155.5
p2758
sg24
S'70'
p2759
sg26
V+18.5
p2760
sg28
S''
sg29
g2623
sg31
V81
p2761
sg33
S'61'
p2762
sg35
V27
p2763
sg37
S'370'
p2764
sg39
V-18.5
p2765
sa(dp2766
g3
V\u65b0\u6f5f\u5929\u9d5d
p2767
sg5
V\u798f\u5cf6\u706b\u50b5\u5238
p2768
sg7
V1.75
p2769
sg9
V1.1
p2770
sg10
V1.75
p2771
sg12
V36
p2772
sg14
V143
p2773
sg16
V4
sg17
V1.75
p2774
sg19
V9
sg20
V1.75
p2775
sg22
V157.5
p2776
sg24
S'67'
p2777
sg26
V+9.5
p2778
sg28
V52
p2779
sg29
g2623
sg31
V96
p2780
sg33
S'77'
p2781
sg35
V54
p2782
sg37
S'371'
p2783
sg39
V-9.5
p2784
sa(dp2785
g3
V\u4eac\u90fd\u5275\u69ae
p2786
sg5
V\u5927\u962a\u4e03\u798f\u795e
p2787
sg7
V1.75
p2788
sg9
V1.3
p2789
sg10
V1.75
p2790
sg12
V68
p2791
sg14
V86
p2792
sg16
V2.6
p2793
sg17
V1.75
p2794
sg19
V6
sg20
V1.75
p2795
sg22
V144.5
p2796
sg24
S'77'
p2797
sg26
V+5.5
p2798
sg28
V40
p2799
sg29
S'20151114'
p2800
sg31
V102
p2801
sg33
S'58'
p2802
sg35
V34
p2803
sg37
S'347'
p2804
sg39
V-5.5
p2805
sa(dp2806
g3
V\u6771\u4eac\u4e94\u5922
p2807
sg5
V\u5bcc\u5c71\u677e\u96de
p2808
sg7
V1.75
p2809
sg9
V
sg10
V1.75
p2810
sg12
V53
p2811
sg14
V173
p2812
sg16
V
sg17
V1.75
p2813
sg19
S''
sg20
V1.75
p2814
sg22
V153.5
p2815
sg24
S'42'
p2816
sg26
V-15.5
p2817
sg28
S''
sg29
g2800
sg31
V77
p2818
sg33
S'105'
p2819
sg35
V33
p2820
sg37
S'348'
p2821
sg39
V+15.5
p2822
sa(dp2823
g3
V\u4ed9\u53f089\u4eba
p2824
sg5
V\u5ca9\u624b\u5927\u516c\u725b
p2825
sg7
V1.75
p2826
sg9
V1.45
p2827
sg10
V1.75
p2828
sg12
V62
p2829
sg14
V91
p2830
sg16
V2.15
p2831
sg17
V1.75
p2832
sg19
V22
p2833
sg20
V1.75
p2834
sg22
V163.5
p2835
sg24
S'75'
p2836
sg26
V+3.5
p2837
sg28
V74
p2838
sg29
g2800
sg31
V191
p2839
sg33
S'70'
p2840
sg35
V47
p2841
sg37
S'349'
p2842
sg39
V-3.5
p2843
sa(dp2844
g3
V\u9752\u68ee\u71b1\u529b
p2845
sg5
V\u57fc\u7389\u91ce\u99ac
p2846
sg7
V1.75
p2847
sg9
V
sg10
V1.75
p2848
sg12
V55
p2849
sg14
V94
p2850
sg16
V
sg17
V1.75
p2851
sg19
S''
sg20
V1.75
p2852
sg22
V155.5
p2853
sg24
S'87'
p2854
sg26
V+19.5
p2855
sg28
S''
sg29
g2800
sg31
V97
p2856
sg33
S'80'
p2857
sg35
V46
p2858
sg37
S'350'
p2859
sg39
V-19.5
p2860
sa(dp2861
g3
V\u5948\u826f\u91ce\u5fc3
p2862
sg5
V\u77f3\u5ddd\u91d1\u6fa4\u6b66\u58eb\u5718
p2863
sg7
V1.75
p2864
sg9
V2.45
p2865
sg10
V1.75
p2866
sg12
V50
p2867
sg14
V180
p2868
sg16
V1.35
p2869
sg17
V1.75
p2870
sg19
V87
p2871
sg20
V1.75
p2872
sg22
V151.5
p2873
sg24
S'72'
p2874
sg26
V-4.5
p2875
sg28
V10
p2876
sg29
g2800
sg31
V69
p2877
sg33
S'75'
p2878
sg35
V42
p2879
sg37
S'351'
p2880
sg39
V+4.5
p2881
sa(dp2882
g3
V\u6ecb\u8cc0\u6e56\u661f
p2883
sg5
V\u6ff1\u677e\u6771\u4e09\u6cb3\u9cf3\u51f0
p2884
sg7
V1.75
p2885
sg9
V2.45
p2886
sg10
V1.75
p2887
sg12
V66
p2888
sg14
V111
p2889
sg16
V1.35
p2890
sg17
V1.75
p2891
sg19
V53
p2892
sg20
V1.75
p2893
sg22
V147.5
p2894
sg24
S'68'
p2895
sg26
V-4.5
p2896
sg28
V11
p2897
sg29
g2800
sg31
V83
p2898
sg33
S'76'
p2899
sg35
V50
p2900
sg37
S'352'
p2901
sg39
V+4.5
p2902
sa(dp2903
g3
V\u6ff1B\u6d77\u76dc\u8239
p2904
sg5
V\u7fa4\u99ac\u96f7\u9db4
p2905
sg7
V1.75
p2906
sg9
V1.25
p2907
sg10
V1.75
p2908
sg12
V49
p2909
sg14
V75
p2910
sg16
V2.85
p2911
sg17
V1.75
p2912
sg19
V10
p2913
sg20
V1.75
p2914
sg22
V154.5
p2915
sg24
S'72'
p2916
sg26
V+6.5
p2917
sg28
V58
p2918
sg29
g2800
sg31
V124
p2919
sg33
S'73'
p2920
sg35
V52
p2921
sg37
S'353'
p2922
sg39
V-6.5
p2923
sa(dp2924
g3
V\u65b0\u6f5f\u5929\u9d5d
p2925
sg5
V\u798f\u5cf6\u706b\u50b5\u5238
p2926
sg7
V1.75
p2927
sg9
V1.1
p2928
sg10
V1.75
p2929
sg12
V80
p2930
sg14
V131
p2931
sg16
V4
sg17
V1.75
p2932
sg19
V10
p2933
sg20
V1.75
p2934
sg22
V154.5
p2935
sg24
S'83'
p2936
sg26
V+9.5
p2937
sg28
V63
p2938
sg29
g2800
sg31
V106
p2939
sg33
S'74'
p2940
sg35
V21
p2941
sg37
S'354'
p2942
sg39
V-9.5
p2943
sa(dp2944
g3
V\u52c7\u58eb\u9577\u91ce
p2945
sg5
V\u79cb\u7530\u5317\u90e8\u559c\u6085
p2946
sg7
V1.75
p2947
sg9
V2.6
p2948
sg10
V1.75
p2949
sg12
V84
p2950
sg14
V174
p2951
sg16
V1.3
p2952
sg17
V1.75
p2953
sg19
V75
p2954
sg20
V1.75
p2955
sg22
V167.5
p2956
sg24
S'76'
p2957
sg26
V-5.5
p2958
sg28
V8
sg29
g2800
sg31
V60
p2959
sg33
S'84'
p2960
sg35
V42
p2961
sg37
S'355'
p2962
sg39
V+5.5
p2963
sa(dp2964
g3
V\u5cf6\u6839\u9b54\u8853
p2965
sg5
V\u798f\u5ca1\u65b0\u92b3
p2966
sg7
V1.75
p2967
sg9
V1.25
p2968
sg10
V1.75
p2969
sg12
V11
p2970
sg14
V10
p2971
sg16
V2.85
p2972
sg17
V1.75
p2973
sg19
V3
sg20
V1.75
p2974
sg22
V158.5
p2975
sg24
S'82'
p2976
sg26
V+6.5
p2977
sg28
V10
p2978
sg29
g2800
sg31
V15
p2979
sg33
S'71'
p2980
sg35
V5
sg37
S'356'
p2981
sg39
V-6.5
p2982
sa(dp2983
g3
V\u4eac\u90fd\u5275\u69ae
p2984
sg5
V\u5927\u962a\u4e03\u798f\u795e
p2985
sg7
V1.75
p2986
sg9
V1.1
p2987
sg10
V1.75
p2988
sg12
V163
p2989
sg14
V242
p2990
sg16
V4
sg17
V1.75
p2991
sg19
V6
sg20
V1.75
p2992
sg22
V144.5
p2993
sg24
S'73'
p2994
sg26
V+9.5
p2995
sg28
V33
p2996
sg29
S'20151113'
p2997
sg31
V152
p2998
sg33
S'70'
p2999
sg35
V100
p3000
sg37
S'318'
p3001
sg39
V-9.5
p3002
sa(dp3003
g3
V\u77f3\u5ddd\u91d1\u6fa4\u6b66\u58eb\u5718
p3004
sg5
V\u6ecb\u8cc0\u6e56\u661f
p3005
sg7
V1.75
p3006
sg9
V1.6
p3007
sg10
V1.75
p3008
sg12
V66
p3009
sg14
V71
p3010
sg16
V1.9
p3011
sg17
V1.75
p3012
sg19
V22
p3013
sg20
V1.75
p3014
sg22
V152.5
p3015
sg24
S'61'
p3016
sg26
V+1.5
p3017
sg28
V32
p3018
sg29
S'20151108'
p3019
sg31
V82
p3020
sg33
S'67'
p3021
sg35
V8
sg37
S'307'
p3022
sg39
V-1.5
p3023
sa(dp3024
g3
V\u6ff1\u677e\u6771\u4e09\u6cb3\u9cf3\u51f0
p3025
sg5
V\u5ee3\u5cf6\u9583\u96fb
p3026
sg7
V1.75
p3027
sg9
V
sg10
V1.75
p3028
sg12
V57
p3029
sg14
V58
p3030
sg16
V
sg17
V1.75
p3031
sg19
S''
sg20
V1.75
p3032
sg22
V164.5
p3033
sg24
S'89'
p3034
sg26
V+29.5
p3035
sg28
S''
sg29
g3019
sg31
V90
p3036
sg33
S'86'
p3037
sg35
V24
p3038
sg37
S'308'
p3039
sg39
V-29.5
p3040
sa(dp3041
g3
V\u798f\u5cf6\u706b\u50b5\u5238
p3042
sg5
V\u9752\u68ee\u71b1\u529b
p3043
sg7
V1.75
p3044
sg9
V1.25
p3045
sg10
V1.75
p3046
sg12
V37
p3047
sg14
V77
p3048
sg16
V2.85
p3049
sg17
V1.75
p3050
sg19
V10
p3051
sg20
V1.75
p3052
sg22
V158.5
p3053
sg24
S'100'
p3054
sg26
V+6.5
p3055
sg28
V40
p3056
sg29
g3019
sg31
V103
p3057
sg33
S'85'
p3058
sg35
V14
p3059
sg37
S'309'
p3060
sg39
V-6.5
p3061
sa(dp3062
g3
V\u5ca9\u624b\u5927\u516c\u725b
p3063
sg5
V\u6771\u4eac\u4e94\u5922
p3064
sg7
V1.75
p3065
sg9
V
sg10
V1.75
p3066
sg12
V27
p3067
sg14
V58
p3068
sg16
V
sg17
V1.75
p3069
sg19
S''
sg20
V1.75
p3070
sg22
V152.5
p3071
sg24
S'93'
p3072
sg26
V+28.5
p3073
sg28
S''
sg29
g3019
sg31
V61
p3074
sg33
S'76'
p3075
sg35
V30
p3076
sg37
S'310'
p3077
sg39
V-28.5
p3078
sa(dp3079
g3
V\u5927\u962a\u4e03\u798f\u795e
p3080
sg5
V\u9ad8\u677e\u4e94\u7bad
p3081
sg7
V1.75
p3082
sg9
V
sg10
V1.75
p3083
sg12
V37
p3084
sg14
V64
p3085
sg16
V
sg17
V1.75
p3086
sg19
S''
sg20
V1.75
p3087
sg22
V153.5
p3088
sg24
S'83'
p3089
sg26
V+20.5
p3090
sg28
S''
sg29
g3019
sg31
V40
p3091
sg33
S'75'
p3092
sg35
V20
p3093
sg37
S'311'
p3094
sg39
V-20.5
p3095
sa(dp3096
g3
V\u7fa4\u99ac\u96f7\u9db4
p3097
sg5
V\u4ed9\u53f089\u4eba
p3098
sg7
V1.75
p3099
sg9
V3.5
p3100
sg10
V1.75
p3101
sg12
V41
p3102
sg14
V80
p3103
sg16
V1.15
p3104
sg17
V1.75
p3105
sg19
V36
p3106
sg20
V1.75
p3107
sg22
V169.5
p3108
sg24
S'88'
p3109
sg26
V-8.5
p3110
sg28
V6
sg29
g3019
sg31
V56
p3111
sg33
S'87'
p3112
sg35
V26
p3113
sg37
S'326'
p3114
sg39
V+8.5
p3115
sa(dp3116
g3
V\u5948\u826f\u91ce\u5fc3
p3117
sg5
V\u4eac\u90fd\u5275\u69ae
p3118
sg7
V1.75
p3119
sg9
V
sg10
V1.75
p3120
sg12
V56
p3121
sg14
V114
p3122
sg16
V
sg17
V1.75
p3123
sg19
S''
sg20
V1.75
p3124
sg22
V142.5
p3125
sg24
S'80'
p3126
sg26
V-21.5
p3127
sg28
S''
sg29
g3019
sg31
V58
p3128
sg33
S'63'
p3129
sg35
V33
p3130
sg37
S'327'
p3131
sg39
V+21.5
p3132
sa(dp3133
g3
V\u79cb\u7530\u5317\u90e8\u559c\u6085
p3134
sg5
V\u6ff1B\u6d77\u76dc\u8239
p3135
sg7
V1.75
p3136
sg9
V
sg10
V1.75
p3137
sg12
V69
p3138
sg14
V49
p3139
sg16
V
sg17
V1.75
p3140
sg19
S''
sg20
V1.75
p3141
sg22
V166.5
p3142
sg24
S'75'
p3143
sg26
V+13.5
p3144
sg28
S''
sg29
g3019
sg31
V101
p3145
sg33
S'81'
p3146
sg35
V44
p3147
sg37
S'328'
p3148
sg39
V-13.5
p3149
sa(dp3150
g3
V\u5927\u5206\u706b\u9b54
p3151
sg5
V\u5cf6\u6839\u9b54\u8853
p3152
sg7
V1.75
p3153
sg9
V
sg10
V1.75
p3154
sg12
V36
p3155
sg14
V38
p3156
sg16
V
sg17
V1.75
p3157
sg19
S''
sg20
V1.75
p3158
sg22
V159.5
p3159
sg24
S'82'
p3160
sg26
V-19.5
p3161
sg28
S''
sg29
g3019
sg31
V69
p3162
sg33
S'73'
p3163
sg35
V18
p3164
sg37
S'383'
p3165
sg39
V+19.5
p3166
sa(dp3167
g3
V\u65b0\u6f5f\u5929\u9d5d
p3168
sg5
V\u52c7\u58eb\u9577\u91ce
p3169
sg7
V1.75
p3170
sg9
V
sg10
V1.75
p3171
sg12
V46
p3172
sg14
V56
p3173
sg16
V
sg17
V1.75
p3174
sg19
S''
sg20
V1.75
p3175
sg22
V147.5
p3176
sg24
S'85'
p3177
sg26
V+14.5
p3178
sg28
S''
sg29
g3019
sg31
V108
p3179
sg33
S'74'
p3180
sg35
V36
p3181
sg37
S'384'
p3182
sg39
V-14.5
p3183
sa(dp3184
g3
V\u7409\u7403\u91d1\u5e1d\u7687
p3185
sg5
V\u798f\u5ca1\u65b0\u92b3
p3186
sg7
V1.75
p3187
sg9
V
sg10
V1.75
p3188
sg12
V71
p3189
sg14
V100
p3190
sg16
V
sg17
V1.75
p3191
sg19
S''
sg20
V1.75
p3192
sg22
V152.5
p3193
sg24
S'85'
p3194
sg26
V+18.5
p3195
sg28
S''
sg29
g3019
sg31
V118
p3196
sg33
S'80'
p3197
sg35
V47
p3198
sg37
S'385'
p3199
sg39
V-18.5
p3200
sa(dp3201
g3
V\u5927\u962a\u4e03\u798f\u795e
p3202
sg5
V\u9ad8\u677e\u4e94\u7bad
p3203
sg7
V1.75
p3204
sg9
V
sg10
V1.75
p3205
sg12
V110
p3206
sg14
V179
p3207
sg16
V
sg17
V1.75
p3208
sg19
S''
sg20
V1.75
p3209
sg22
V155.5
p3210
sg24
S'81'
p3211
sg26
V+23.5
p3212
sg28
S''
sg29
S'20151107'
p3213
sg31
V87
p3214
sg33
S'60'
p3215
sg35
V34
p3216
sg37
S'314'
p3217
sg39
V-23.5
p3218
sa(dp3219
g3
V\u5ca9\u624b\u5927\u516c\u725b
p3220
sg5
V\u6771\u4eac\u4e94\u5922
p3221
sg7
V1.75
p3222
sg9
V
sg10
V1.75
p3223
sg12
V51
p3224
sg14
V105
p3225
sg16
V
sg17
V1.75
p3226
sg19
S''
sg20
V1.75
p3227
sg22
V152.5
p3228
sg24
S'90'
p3229
sg26
V+28.5
p3230
sg28
S''
sg29
g3213
sg31
V113
p3231
sg33
S'64'
p3232
sg35
V51
p3233
sg37
S'315'
p3234
sg39
V-28.5
p3235
sa(dp3236
g3
V\u65b0\u6f5f\u5929\u9d5d
p3237
sg5
V\u52c7\u58eb\u9577\u91ce
p3238
sg7
V1.75
p3239
sg9
V
sg10
V1.75
p3240
sg12
V63
p3241
sg14
V67
p3242
sg16
V
sg17
V1.75
p3243
sg19
S''
sg20
V1.75
p3244
sg22
V153.5
p3245
sg24
S'75'
p3246
sg26
V+17.5
p3247
sg28
S''
sg29
g3213
sg31
V192
p3248
sg33
S'76'
p3249
sg35
V28
p3250
sg37
S'316'
p3251
sg39
V-17.5
p3252
sa(dp3253
g3
V\u79cb\u7530\u5317\u90e8\u559c\u6085
p3254
sg5
V\u6ff1B\u6d77\u76dc\u8239
p3255
sg7
V1.75
p3256
sg9
V
sg10
V1.75
p3257
sg12
V85
p3258
sg14
V76
p3259
sg16
V
sg17
V1.75
p3260
sg19
S''
sg20
V1.75
p3261
sg22
V164.5
p3262
sg24
S'101'
p3263
sg26
V+12.5
p3264
sg28
S''
sg29
g3213
sg31
V137
p3265
sg33
S'81'
p3266
sg35
V48
p3267
sg37
S'317'
p3268
sg39
V-12.5
p3269
sa(dp3270
g3
V\u77f3\u5ddd\u91d1\u6fa4\u6b66\u58eb\u5718
p3271
sg5
V\u6ecb\u8cc0\u6e56\u661f
p3272
sg7
V1.85
p3273
sg9
V1.8
p3274
sg10
V1.75
p3275
sg12
V57
p3276
sg14
V71
p3277
sg16
V1.7
p3278
sg17
V1.65
p3279
sg19
V38
p3280
sg20
V1.75
p3281
sg22
V156.5
p3282
sg24
S'83'
p3283
sg26
V-1.5
p3284
sg28
V24
p3285
sg29
g3213
sg31
V73
p3286
sg33
S'64'
p3287
sg35
V15
p3288
sg37
S'318'
p3289
sg39
V+1.5
p3290
sa(dp3291
g3
V\u7fa4\u99ac\u96f7\u9db4
p3292
sg5
V\u4ed9\u53f089\u4eba
p3293
sg7
V1.75
p3294
sg9
V
sg10
V1.75
p3295
sg12
V93
p3296
sg14
V168
p3297
sg16
V
sg17
V1.75
p3298
sg19
S''
sg20
V1.75
p3299
sg22
V162.5
p3300
sg24
S'88'
p3301
sg26
V-10.5
p3302
sg28
S''
sg29
g3213
sg31
V72
p3303
sg33
S'98'
p3304
sg35
V30
p3305
sg37
S'319'
p3306
sg39
V+10.5
p3307
sa(dp3308
g3
V\u5927\u5206\u706b\u9b54
p3309
sg5
V\u5cf6\u6839\u9b54\u8853
p3310
sg7
V1.75
p3311
sg9
V
sg10
V1.75
p3312
sg12
V56
p3313
sg14
V110
p3314
sg16
V
sg17
V1.75
p3315
sg19
S''
sg20
V1.75
p3316
sg22
V156.5
p3317
sg24
S'67'
p3318
sg26
V-14.5
p3319
sg28
S''
sg29
g3213
sg31
V83
p3320
sg33
S'96'
p3321
sg35
V31
p3322
sg37
S'320'
p3323
sg39
V+14.5
p3324
sa(dp3325
g3
V\u6ff1\u677e\u6771\u4e09\u6cb3\u9cf3\u51f0
p3326
sg5
V\u5ee3\u5cf6\u9583\u96fb
p3327
sg7
V1.75
p3328
sg9
V
sg10
V1.75
p3329
sg12
V95
p3330
sg14
V100
p3331
sg16
V
sg17
V1.75
p3332
sg19
S''
sg20
V1.75
p3333
sg22
V164.5
p3334
sg24
S'101'
p3335
sg26
V+27.5
p3336
sg28
S''
sg29
g3213
sg31
V110
p3337
sg33
S'59'
p3338
sg35
V38
p3339
sg37
S'321'
p3340
sg39
V-27.5
p3341
sa(dp3342
g3
V\u798f\u5cf6\u706b\u50b5\u5238
p3343
sg5
V\u9752\u68ee\u71b1\u529b
p3344
sg7
V1.75
p3345
sg9
V
sg10
V1.75
p3346
sg12
V68
p3347
sg14
V79
p3348
sg16
V
sg17
V1.75
p3349
sg19
S''
sg20
V1.75
p3350
sg22
V160.5
p3351
sg24
S'71'
p3352
sg26
V+11.5
p3353
sg28
S''
sg29
g3213
sg31
V83
p3354
sg33
S'81'
p3355
sg35
V25
p3356
sg37
S'322'
p3357
sg39
V-11.5
p3358
sa(dp3359
g3
V\u5948\u826f\u91ce\u5fc3
p3360
sg5
V\u4eac\u90fd\u5275\u69ae
p3361
sg7
V1.75
p3362
sg9
V
sg10
V1.75
p3363
sg12
V39
p3364
sg14
V137
p3365
sg16
V
sg17
V1.75
p3366
sg19
S''
sg20
V1.75
p3367
sg22
V141.5
p3368
sg24
S'47'
p3369
sg26
V-16.5
p3370
sg28
S''
sg29
g3213
sg31
V66
p3371
sg33
S'94'
p3372
sg35
V75
p3373
sg37
S'323'
p3374
sg39
V+16.5
p3375
sa(dp3376
g3
V\u7409\u7403\u91d1\u5e1d\u7687
p3377
sg5
V\u798f\u5ca1\u65b0\u92b3
p3378
sg7
V1.75
p3379
sg9
V
sg10
V1.75
p3380
sg12
V60
p3381
sg14
V132
p3382
sg16
V
sg17
V1.75
p3383
sg19
S''
sg20
V1.75
p3384
sg22
V151.5
p3385
sg24
S'84'
p3386
sg26
V+18.5
p3387
sg28
S''
sg29
g3213
sg31
V94
p3388
sg33
S'67'
p3389
sg35
V32
p3390
sg37
S'324'
p3391
sg39
V-18.5
p3392
sa(dp3393
g3
V\u5bcc\u5c71\u677e\u96de
p3394
sg5
V\u4ed9\u53f089\u4eba
p3395
sg7
V1.75
p3396
sg9
V1.5
p3397
sg10
V1.75
p3398
sg12
V50
p3399
sg14
V107
p3400
sg16
V2.05
p3401
sg17
V1.75
p3402
sg19
V30
p3403
sg20
V1.75
p3404
sg22
V161.5
p3405
sg24
S'92'
p3406
sg26
V+2.5
p3407
sg28
V49
p3408
sg29
S'20151101'
p3409
sg31
V106
p3410
sg33
S'77'
p3411
sg35
V29
p3412
sg37
S'306'
p3413
sg39
V-2.5
p3414
sa(dp3415
g3
V\u5cf6\u6839\u9b54\u8853
p3416
sg5
V\u7409\u7403\u91d1\u5e1d\u7687
p3417
sg7
V1.75
p3418
sg9
V2.6
p3419
sg10
V1.75
p3420
sg12
V63
p3421
sg14
V130
p3422
sg16
V1.3
p3423
sg17
V1.75
p3424
sg19
V57
p3425
sg20
V1.75
p3426
sg22
V148.5
p3427
sg24
S'54'
p3428
sg26
V-5.5
p3429
sg28
V10
p3430
sg29
g3409
sg31
V83
p3431
sg33
S'59'
p3432
sg35
V31
p3433
sg37
S'307'
p3434
sg39
V+5.5
p3435
sa(dp3436
g3
V\u5927\u5206\u706b\u9b54
p3437
sg5
V\u6ff1\u677e\u6771\u4e09\u6cb3\u9cf3\u51f0
p3438
sg7
V1.75
p3439
sg9
V
sg10
V1.75
p3440
sg12
V104
p3441
sg14
V93
p3442
sg16
V
sg17
V1.75
p3443
sg19
S''
sg20
V1.75
p3444
sg22
V157.5
p3445
sg24
S'63'
p3446
sg26
V-16.5
p3447
sg28
S''
sg29
g3409
sg31
V97
p3448
sg33
S'90'
p3449
sg35
V34
p3450
sg37
S'308'
p3451
sg39
V+16.5
p3452
sa(dp3453
g3
V\u7fa4\u99ac\u96f7\u9db4
p3454
sg5
V\u5ca9\u624b\u5927\u516c\u725b
p3455
sg7
V1.75
p3456
sg9
V2.45
p3457
sg10
V1.75
p3458
sg12
V75
p3459
sg14
V116
p3460
sg16
V1.35
p3461
sg17
V1.75
p3462
sg19
V52
p3463
sg20
V1.75
p3464
sg22
V150.5
p3465
sg24
S'59'
p3466
sg26
V-4.5
p3467
sg28
V16
p3468
sg29
g3409
sg31
V93
p3469
sg33
S'74'
p3470
sg35
V29
p3471
sg37
S'309'
p3472
sg39
V+4.5
p3473
sa(dp3474
g3
V\u6771\u4eac\u4e94\u5922
p3475
sg5
V\u9752\u68ee\u71b1\u529b
p3476
sg7
V1.75
p3477
sg9
V
sg10
V1.75
p3478
sg12
V59
p3479
sg14
V174
p3480
sg16
V
sg17
V1.75
p3481
sg19
S''
sg20
V1.75
p3482
sg22
V157.5
p3483
sg24
S'58'
p3484
sg26
V-12.5
p3485
sg28
S''
sg29
g3409
sg31
V49
p3486
sg33
S'91'
p3487
sg35
V31
p3488
sg37
S'310'
p3489
sg39
V+12.5
p3490
sa(dp3491
g3
V\u798f\u5ca1\u65b0\u92b3
p3492
sg5
V\u5927\u962a\u4e03\u798f\u795e
p3493
sg7
V1.75
p3494
sg9
V
sg10
V1.75
p3495
sg12
V69
p3496
sg14
V103
p3497
sg16
V
sg17
V1.75
p3498
sg19
S''
sg20
V1.75
p3499
sg22
V153.5
p3500
sg24
S'69'
p3501
sg26
V-13.5
p3502
sg28
S''
sg29
g3409
sg31
V91
p3503
sg33
S'77'
p3504
sg35
V23
p3505
sg37
S'311'
p3506
sg39
V+13.5
p3507
sa(dp3508
g3
V\u57fc\u7389\u91ce\u99ac
p3509
sg5
V\u65b0\u6f5f\u5929\u9d5d
p3510
sg7
V1.75
p3511
sg9
V
sg10
V1.75
p3512
sg12
V57
p3513
sg14
V102
p3514
sg16
V
sg17
V1.75
p3515
sg19
S''
sg20
V1.75
p3516
sg22
V156.5
p3517
sg24
S'64'
p3518
sg26
V-20.5
p3519
sg28
S''
sg29
g3409
sg31
V83
p3520
sg33
S'91'
p3521
sg35
V27
p3522
sg37
S'312'
p3523
sg39
V+20.5
p3524
sa(dp3525
g3
V\u6ff1B\u6d77\u76dc\u8239
p3526
sg5
V\u52c7\u58eb\u9577\u91ce
p3527
sg7
V1.75
p3528
sg9
V1.45
p3529
sg10
V1.75
p3530
sg12
V53
p3531
sg14
V88
p3532
sg16
V2.15
p3533
sg17
V1.75
p3534
sg19
V20
p3535
sg20
V1.75
p3536
sg22
V149.5
p3537
sg24
S'87'
p3538
sg26
V+3.5
p3539
sg28
V54
p3540
sg29
g3409
sg31
V126
p3541
sg33
S'74'
p3542
sg35
V44
p3543
sg37
S'334'
p3544
sg39
V-3.5
p3545
sa(dp3546
g3
V\u9ad8\u677e\u4e94\u7bad
p3547
sg5
V\u5948\u826f\u91ce\u5fc3
p3548
sg7
V1.75
p3549
sg9
V1.5
p3550
sg10
V1.75
p3551
sg12
V62
p3552
sg14
V70
p3553
sg16
V2.05
p3554
sg17
V1.75
p3555
sg19
V23
p3556
sg20
V1.75
p3557
sg22
V149.5
p3558
sg24
S'79'
p3559
sg26
V+2.5
p3560
sg28
V56
p3561
sg29
g3409
sg31
V159
p3562
sg33
S'99'
p3563
sg35
V49
p3564
sg37
S'380'
p3565
sg39
V-2.5
p3566
sa(dp3567
g3
V\u6771\u4eac\u4e94\u5922
p3568
sg5
V\u9752\u68ee\u71b1\u529b
p3569
sg7
V1.75
p3570
sg9
V
sg10
V1.75
p3571
sg12
V69
p3572
sg14
V182
p3573
sg16
V
sg17
V1.75
p3574
sg19
S''
sg20
V1.75
p3575
sg22
V152.5
p3576
sg24
S'76'
p3577
sg26
V-11.5
p3578
sg28
S''
sg29
S'20151031'
p3579
sg31
V69
p3580
sg33
S'94'
p3581
sg35
V35
p3582
sg37
S'329'
p3583
sg39
V+11.5
p3584
sa(dp3585
g3
V\u6ff1B\u6d77\u76dc\u8239
p3586
sg5
V\u52c7\u58eb\u9577\u91ce
p3587
sg7
V1.75
p3588
sg9
V1.35
p3589
sg10
V1.75
p3590
sg12
V67
p3591
sg14
V106
p3592
sg16
V2.45
p3593
sg17
V1.75
p3594
sg19
V22
p3595
sg20
V1.75
p3596
sg22
V152.5
p3597
sg24
S'72'
p3598
sg26
V+4.5
p3599
sg28
V42
p3600
sg29
g3579
sg31
V106
p3601
sg33
S'71'
p3602
sg35
V49
p3603
sg37
S'330'
p3604
sg39
V-4.5
p3605
sa(dp3606
g3
V\u5bcc\u5c71\u677e\u96de
p3607
sg5
V\u4ed9\u53f089\u4eba
p3608
sg7
V1.75
p3609
sg9
V1.6
p3610
sg10
V1.75
p3611
sg12
V68
p3612
sg14
V201
p3613
sg16
V1.9
p3614
sg17
V1.75
p3615
sg19
V78
p3616
sg20
V1.75
p3617
sg22
V158.5
p3618
sg24
S'83'
p3619
sg26
V+1.5
p3620
sg28
V32
p3621
sg29
g3579
sg31
V83
p3622
sg33
S'86'
p3623
sg35
V35
p3624
sg37
S'331'
p3625
sg39
V-1.5
p3626
sa(dp3627
g3
V\u57fc\u7389\u91ce\u99ac
p3628
sg5
V\u65b0\u6f5f\u5929\u9d5d
p3629
sg7
V1.75
p3630
sg9
V
sg10
V1.75
p3631
sg12
V53
p3632
sg14
V174
p3633
sg16
V
sg17
V1.75
p3634
sg19
S''
sg20
V1.75
p3635
sg22
V155.5
p3636
sg24
S'71'
p3637
sg26
V-18.5
p3638
sg28
S''
sg29
g3579
sg31
V75
p3639
sg33
S'95'
p3640
sg35
V54
p3641
sg37
S'332'
p3642
sg39
V+18.5
p3643
sa(dp3644
g3
V\u7fa4\u99ac\u96f7\u9db4
p3645
sg5
V\u5ca9\u624b\u5927\u516c\u725b
p3646
sg7
V1.75
p3647
sg9
V2.15
p3648
sg10
V1.75
p3649
sg12
V61
p3650
sg14
V125
p3651
sg16
V1.45
p3652
sg17
V1.75
p3653
sg19
V56
p3654
sg20
V1.75
p3655
sg22
V150.5
p3656
sg24
S'80'
p3657
sg26
V-3.5
p3658
sg28
V18
p3659
sg29
g3579
sg31
V88
p3660
sg33
S'81'
p3661
sg35
V59
p3662
sg37
S'333'
p3663
sg39
V+3.5
p3664
sa(dp3665
g3
V\u5927\u5206\u706b\u9b54
p3666
sg5
V\u6ff1\u677e\u6771\u4e09\u6cb3\u9cf3\u51f0
p3667
sg7
V1.75
p3668
sg9
V
sg10
V1.75
p3669
sg12
V82
p3670
sg14
V103
p3671
sg16
V
sg17
V1.75
p3672
sg19
S''
sg20
V1.75
p3673
sg22
V149.5
p3674
sg24
S'88'
p3675
sg26
V-16.5
p3676
sg28
S''
sg29
g3579
sg31
V84
p3677
sg33
S'102'
p3678
sg35
V42
p3679
sg37
S'335'
p3680
sg39
V+16.5
p3681
sa(dp3682
g3
V\u9ad8\u677e\u4e94\u7bad
p3683
sg5
V\u5948\u826f\u91ce\u5fc3
p3684
sg7
V1.75
p3685
sg9
V
sg10
V1.75
p3686
sg12
V58
p3687
sg14
V69
p3688
sg16
V
sg17
V1.75
p3689
sg19
S''
sg20
V1.75
p3690
sg22
V156.5
p3691
sg24
S'60'
p3692
sg26
V+10.5
p3693
sg28
S''
sg29
g3579
sg31
V129
p3694
sg33
S'73'
p3695
sg35
V49
p3696
sg37
S'336'
p3697
sg39
V-10.5
p3698
sa(dp3699
g3
V\u798f\u5ca1\u65b0\u92b3
p3700
sg5
V\u5927\u962a\u4e03\u798f\u795e
p3701
sg7
V1.75
p3702
sg9
V
sg10
V1.75
p3703
sg12
V63
p3704
sg14
V87
p3705
sg16
V
sg17
V1.75
p3706
sg19
S''
sg20
V1.75
p3707
sg22
V149.5
p3708
sg24
S'69'
p3709
sg26
V-10.5
p3710
sg28
S''
sg29
g3579
sg31
V102
p3711
sg33
S'96'
p3712
sg35
V32
p3713
sg37
S'337'
p3714
sg39
V+10.5
p3715
sa(dp3716
g3
V\u5cf6\u6839\u9b54\u8853
p3717
sg5
V\u7409\u7403\u91d1\u5e1d\u7687
p3718
sg7
V1.75
p3719
sg9
V2.85
p3720
sg10
V1.75
p3721
sg12
V89
p3722
sg14
V175
p3723
sg16
V1.25
p3724
sg17
V1.75
p3725
sg19
V81
p3726
sg20
V1.75
p3727
sg22
V146.5
p3728
sg24
S'72'
p3729
sg26
V-6.5
p3730
sg28
V4
sg29
g3579
sg31
V58
p3731
sg33
S'79'
p3732
sg35
V38
p3733
sg37
S'338'
p3734
sg39
V+6.5
p3735
sa(dp3736
g3
V\u5ee3\u5cf6\u9583\u96fb
p3737
sg5
V\u77f3\u5ddd\u91d1\u6fa4\u6b66\u58eb\u5718
p3738
sg7
V1.75
p3739
sg9
V
sg10
V1.75
p3740
sg12
V192
p3741
sg14
V171
p3742
sg16
V
sg17
V1.75
p3743
sg19
S''
sg20
V1.75
p3744
sg22
V176.5
p3745
sg24
S'84'
p3746
sg26
V-24.5
p3747
sg28
S''
sg29
S'20151030'
p3748
sg31
V190
p3749
sg33
S'114'
p3750
sg35
V114
p3751
sg37
S'304'
p3752
sg39
V+24.5
p3753
sa(dp3754
g3
V\u5ee3\u5cf6\u9583\u96fb
p3755
sg5
V\u77f3\u5ddd\u91d1\u6fa4\u6b66\u58eb\u5718
p3756
sg7
V1.75
p3757
sg9
V
sg10
V1.75
p3758
sg12
V200
p3759
sg14
V146
p3760
sg16
V
sg17
V1.75
p3761
sg19
S''
sg20
V1.75
p3762
sg22
V164.5
p3763
sg24
S'81'
p3764
sg26
V-18.5
p3765
sg28
S''
sg29
S'20151029'
p3766
sg31
V201
p3767
sg33
S'121'
p3768
sg35
V84
p3769
sg37
S'300'
p3770
sg39
V+18.5
p3771
sa(dp3772
g3
V\u5bcc\u5c71\u677e\u96de
p3773
sg5
V\u6ff1B\u6d77\u76dc\u8239
p3774
sg7
V1.75
p3775
sg9
V
sg10
V1.75
p3776
sg12
V38
p3777
sg14
V116
p3778
sg16
V
sg17
V1.75
p3779
sg19
S''
sg20
V1.75
p3780
sg22
V151.5
p3781
sg24
S'69'
p3782
sg26
V+15.5
p3783
sg28
S''
sg29
S'20151025'
p3784
sg31
V33
p3785
sg33
S'63'
p3786
sg35
V20
p3787
sg37
S'331'
p3788
sg39
V-15.5
p3789
sa(dp3790
g3
V\u4eac\u90fd\u5275\u69ae
p3791
sg5
V\u5ee3\u5cf6\u9583\u96fb
p3792
sg7
V1.75
p3793
sg9
V
sg10
V1.75
p3794
sg12
V30
p3795
sg14
V77
p3796
sg16
V
sg17
V1.75
p3797
sg19
S''
sg20
V1.75
p3798
sg22
V160.5
p3799
sg24
S'76'
p3800
sg26
V+28.5
p3801
sg28
S''
sg29
g3784
sg31
V58
p3802
sg33
S'62'
p3803
sg35
V27
p3804
sg37
S'332'
p3805
sg39
V-28.5
p3806
sa(dp3807
g3
V\u9ad8\u677e\u4e94\u7bad
p3808
sg5
V\u6ecb\u8cc0\u6e56\u661f
p3809
sg7
V1.75
p3810
sg9
V
sg10
V1.75
p3811
sg12
V47
p3812
sg14
V70
p3813
sg16
V
sg17
V1.75
p3814
sg19
S''
sg20
V1.75
p3815
sg22
V157.5
p3816
sg24
S'81'
p3817
sg26
V-17.5
p3818
sg28
S''
sg29
g3784
sg31
V67
p3819
sg33
S'92'
p3820
sg35
V17
p3821
sg37
S'333'
p3822
sg39
V+17.5
p3823
sa(dp3824
g3
V\u77f3\u5ddd\u91d1\u6fa4\u6b66\u58eb\u5718
p3825
sg5
V\u5927\u5206\u706b\u9b54
p3826
sg7
V1.75
p3827
sg9
V1.15
p3828
sg10
V1.75
p3829
sg12
V24
p3830
sg14
V43
p3831
sg16
V3.5
p3832
sg17
V1.75
p3833
sg19
V4
sg20
V1.75
p3834
sg22
V159.5
p3835
sg24
S'106'
p3836
sg26
V+8.5
p3837
sg28
V38
p3838
sg29
g3784
sg31
V71
p3839
sg33
S'88'
p3840
sg35
V22
p3841
sg37
S'334'
p3842
sg39
V-8.5
p3843
sa(dp3844
g3
V\u4ed9\u53f089\u4eba
p3845
sg5
V\u798f\u5cf6\u706b\u50b5\u5238
p3846
sg7
V1.75
p3847
sg9
V1.15
p3848
sg10
V1.75
p3849
sg12
V63
p3850
sg14
V52
p3851
sg16
V3.5
p3852
sg17
V1.75
p3853
sg19
V2
sg20
V1.75
p3854
sg22
V171.5
p3855
sg24
S'67'
p3856
sg26
V+8.5
p3857
sg28
V47
p3858
sg29
g3784
sg31
V93
p3859
sg33
S'69'
p3860
sg35
V27
p3861
sg37
S'335'
p3862
sg39
V-8.5
p3863
sa(dp3864
g3
V\u6ff1\u677e\u6771\u4e09\u6cb3\u9cf3\u51f0
p3865
sg5
V\u5cf6\u6839\u9b54\u8853
p3866
sg7
V1.75
p3867
sg9
V1.15
p3868
sg10
V1.75
p3869
sg12
V25
p3870
sg14
V53
p3871
sg16
V3.5
p3872
sg17
V1.75
p3873
sg19
V7
sg20
V1.75
p3874
sg22
V142.5
p3875
sg24
S'68'
p3876
sg26
V+8.5
p3877
sg28
V42
p3878
sg29
g3784
sg31
V88
p3879
sg33
S'62'
p3880
sg35
V32
p3881
sg37
S'336'
p3882
sg39
V-8.5
p3883
sa(dp3884
g3
V\u52c7\u58eb\u9577\u91ce
p3885
sg5
V\u5ca9\u624b\u5927\u516c\u725b
p3886
sg7
V1.75
p3887
sg9
V2.6
p3888
sg10
V1.75
p3889
sg12
V39
p3890
sg14
V98
p3891
sg16
V1.3
p3892
sg17
V1.75
p3893
sg19
V45
p3894
sg20
V1.75
p3895
sg22
V152.5
p3896
sg24
S'74'
p3897
sg26
V-5.5
p3898
sg28
V11
p3899
sg29
g3784
sg31
V62
p3900
sg33
S'80'
p3901
sg35
V27
p3902
sg37
S'337'
p3903
sg39
V+5.5
p3904
sa(dp3905
g3
V\u5948\u826f\u91ce\u5fc3
p3906
sg5
V\u798f\u5ca1\u65b0\u92b3
p3907
sg7
V1.75
p3908
sg9
V2.45
p3909
sg10
V1.75
p3910
sg12
V37
p3911
sg14
V138
p3912
sg16
V1.35
p3913
sg17
V1.75
p3914
sg19
V64
p3915
sg20
V1.75
p3916
sg22
V147.5
p3917
sg24
S'61'
p3918
sg26
V-4.5
p3919
sg28
V6
sg29
g3784
sg31
V42
p3920
sg33
S'69'
p3921
sg35
V35
p3922
sg37
S'338'
p3923
sg39
V+4.5
p3924
sa(dp3925
g3
V\u9752\u68ee\u71b1\u529b
p3926
sg5
V\u79cb\u7530\u5317\u90e8\u559c\u6085
p3927
sg7
V1.75
p3928
sg9
V2.85
p3929
sg10
V1.75
p3930
sg12
V56
p3931
sg14
V86
p3932
sg16
V1.25
p3933
sg17
V1.75
p3934
sg19
V44
p3935
sg20
V1.75
p3936
sg22
V165.5
p3937
sg24
S'73'
p3938
sg26
V-6.5
p3939
sg28
V8
sg29
g3784
sg31
V49
p3940
sg33
S'92'
p3941
sg35
V34
p3942
sg37
S'339'
p3943
sg39
V+6.5
p3944
sa(dp3945
g3
V\u5927\u962a\u4e03\u798f\u795e
p3946
sg5
V\u7409\u7403\u91d1\u5e1d\u7687
p3947
sg7
V1.85
p3948
sg9
V1.8
p3949
sg10
V1.75
p3950
sg12
V38
p3951
sg14
V126
p3952
sg16
V1.7
p3953
sg17
V1.65
p3954
sg19
V56
p3955
sg20
V1.75
p3956
sg22
V152.5
p3957
sg24
S'92'
p3958
sg26
V-1.5
p3959
sg28
V20
p3960
sg29
g3784
sg31
V60
p3961
sg33
S'95'
p3962
sg35
V48
p3963
sg37
S'340'
p3964
sg39
V+1.5
p3965
sa(dp3966
g3
V\u6771\u4eac\u4e94\u5922
p3967
sg5
V\u57fc\u7389\u91ce\u99ac
p3968
sg7
V1.75
p3969
sg9
V1.45
p3970
sg10
V1.75
p3971
sg12
V26
p3972
sg14
V69
p3973
sg16
V2.15
p3974
sg17
V1.75
p3975
sg19
V13
p3976
sg20
V1.75
p3977
sg22
V151.5
p3978
sg24
S'62'
p3979
sg26
V+3.5
p3980
sg28
V29
p3981
sg29
g3784
sg31
V68
p3982
sg33
S'91'
p3983
sg35
V39
p3984
sg37
S'341'
p3985
sg39
V-3.5
p3986
sa(dp3987
g3
V\u65b0\u6f5f\u5929\u9d5d
p3988
sg5
V\u7fa4\u99ac\u96f7\u9db4
p3989
sg7
V1.75
p3990
sg9
V
sg10
V1.75
p3991
sg12
V78
p3992
sg14
V78
p3993
sg16
V
sg17
V1.75
p3994
sg19
S''
sg20
V1.75
p3995
sg22
V152.5
p3996
sg24
S'66'
p3997
sg26
V+19.5
p3998
sg28
S''
sg29
g3784
sg31
V105
p3999
sg33
S'69'
p4000
sg35
V25
p4001
sg37
S'342'
p4002
sg39
V-19.5
p4003
sa(dp4004
g3
V\u5927\u5206\u706b\u9b54
p4005
sg5
V\u4eac\u90fd\u5275\u69ae
p4006
sg7
V1.75
p4007
sg9
V
sg10
V1.75
p4008
sg12
V216
p4009
sg14
V225
p4010
sg16
V
sg17
V1.75
p4011
sg19
S''
sg20
V1.75
p4012
sg22
V150.5
p4013
sg24
S'64'
p4014
sg26
V-14.5
p4015
sg28
S''
sg29
S'20151019'
p4016
sg31
V130
p4017
sg33
S'95'
p4018
sg35
V74
p4019
sg37
S'300'
p4020
sg39
V+14.5
p4021
sa(dp4022
g3
V\u798f\u5cf6\u706b\u50b5\u5238
p4023
sg5
V\u7fa4\u99ac\u96f7\u9db4
p4024
sg7
V1.75
p4025
sg9
V1.25
p4026
sg10
V1.75
p4027
sg12
V89
p4028
sg14
V99
p4029
sg16
V2.85
p4030
sg17
V1.75
p4031
sg19
V17
p4032
sg20
V1.75
p4033
sg22
V159.5
p4034
sg24
S'77'
p4035
sg26
V+6.5
p4036
sg28
V55
p4037
sg29
S'20151018'
p4038
sg31
V110
p4039
sg33
S'63'
p4040
sg35
V35
p4041
sg37
S'301'
p4042
sg39
V-6.5
p4043
sa(dp4044
g3
V\u6ff1\u677e\u6771\u4e09\u6cb3\u9cf3\u51f0
p4045
sg5
V\u77f3\u5ddd\u91d1\u6fa4\u6b66\u58eb\u5718
p4046
sg7
V1.75
p4047
sg9
V
sg10
V1.75
p4048
sg12
V32
p4049
sg14
V79
p4050
sg16
V
sg17
V1.75
p4051
sg19
S''
sg20
V1.75
p4052
sg22
V143.5
p4053
sg24
S'71'
p4054
sg26
V+13.5
p4055
sg28
S''
sg29
g4038
sg31
V99
p4056
sg33
S'63'
p4057
sg35
V42
p4058
sg37
S'302'
p4059
sg39
V-13.5
p4060
sa(dp4061
g3
V\u9752\u68ee\u71b1\u529b
p4062
sg5
V\u5bcc\u5c71\u677e\u96de
p4063
sg7
V1.75
p4064
sg9
V2.05
p4065
sg10
V1.75
p4066
sg12
V51
p4067
sg14
V115
p4068
sg16
V1.5
p4069
sg17
V1.75
p4070
sg19
V46
p4071
sg20
V1.75
p4072
sg22
V159.5
p4073
sg24
S'69'
p4074
sg26
V-2.5
p4075
sg28
V35
p4076
sg29
g4038
sg31
V116
p4077
sg33
S'92'
p4078
sg35
V38
p4079
sg37
S'303'
p4080
sg39
V+2.5
p4081
sa(dp4082
g3
V\u79cb\u7530\u5317\u90e8\u559c\u6085
p4083
sg5
V\u4ed9\u53f089\u4eba
p4084
sg7
V1.75
p4085
sg9
V1.35
p4086
sg10
V1.75
p4087
sg12
V91
p4088
sg14
V137
p4089
sg16
V2.45
p4090
sg17
V1.75
p4091
sg19
V32
p4092
sg20
V1.75
p4093
sg22
V164.5
p4094
sg24
S'80'
p4095
sg26
V+4.5
p4096
sg28
V50
p4097
sg29
g4038
sg31
V109
p4098
sg33
S'86'
p4099
sg35
V24
p4100
sg37
S'304'
p4101
sg39
V-4.5
p4102
sa(dp4103
g3
V\u57fc\u7389\u91ce\u99ac
p4104
sg5
V\u52c7\u58eb\u9577\u91ce
p4105
sg7
V1.75
p4106
sg9
V
sg10
V1.75
p4107
sg12
V37
p4108
sg14
V103
p4109
sg16
V
sg17
V1.75
p4110
sg19
S''
sg20
V1.75
p4111
sg22
V156.5
p4112
sg24
S'66'
p4113
sg26
V-12.5
p4114
sg28
S''
sg29
g4038
sg31
V59
p4115
sg33
S'83'
p4116
sg35
V59
p4117
sg37
S'306'
p4118
sg39
V+12.5
p4119
sa(dp4120
g3
V\u5927\u962a\u4e03\u798f\u795e
p4121
sg5
V\u5cf6\u6839\u9b54\u8853
p4122
sg7
V1.75
p4123
sg9
V1.25
p4124
sg10
V1.75
p4125
sg12
V38
p4126
sg14
V110
p4127
sg16
V2.85
p4128
sg17
V1.75
p4129
sg19
V18
p4130
sg20
V1.75
p4131
sg22
V147.5
p4132
sg24
S'69'
p4133
sg26
V+6.5
p4134
sg28
V39
p4135
sg29
g4038
sg31
V88
p4136
sg33
S'63'
p4137
sg35
V29
p4138
sg37
S'309'
p4139
sg39
V-6.5
p4140
sa(dp4141
g3
V\u5ca9\u624b\u5927\u516c\u725b
p4142
sg5
V\u65b0\u6f5f\u5929\u9d5d
p4143
sg7
V1.75
p4144
sg9
V1.9
p4145
sg10
V1.75
p4146
sg12
V45
p4147
sg14
V144
p4148
sg16
V1.6
p4149
sg17
V1.75
p4150
sg19
V60
p4151
sg20
V1.75
p4152
sg22
V144.5
p4153
sg24
S'73'
p4154
sg26
V-1.5
p4155
sg28
V35
p4156
sg29
g4038
sg31
V103
p4157
sg33
S'84'
p4158
sg35
V45
p4159
sg37
S'316'
p4160
sg39
V+1.5
p4161
sa(dp4162
g3
V\u5927\u5206\u706b\u9b54
p4163
sg5
V\u4eac\u90fd\u5275\u69ae
p4164
sg7
V1.75
p4165
sg9
V
sg10
V1.75
p4166
sg12
V63
p4167
sg14
V118
p4168
sg16
V
sg17
V1.75
p4169
sg19
S''
sg20
V1.75
p4170
sg22
V144.5
p4171
sg24
S'66'
p4172
sg26
V-10.5
p4173
sg28
S''
sg29
g4038
sg31
V78
p4174
sg33
S'109'
p4175
sg35
V46
p4176
sg37
S'317'
p4177
sg39
V+10.5
p4178
sa(dp4179
g3
V\u7409\u7403\u91d1\u5e1d\u7687
p4180
sg5
V\u5948\u826f\u91ce\u5fc3
p4181
sg7
V1.75
p4182
sg9
V
sg10
V1.75
p4183
sg12
V62
p4184
sg14
V90
p4185
sg16
V
sg17
V1.75
p4186
sg19
S''
sg20
V1.75
p4187
sg22
V152.5
p4188
sg24
S'75'
p4189
sg26
V+23.5
p4190
sg28
S''
sg29
g4038
sg31
V140
p4191
sg33
S'64'
p4192
sg35
V59
p4193
sg37
S'319'
p4194
sg39
V-23.5
p4195
sa(dp4196
g3
V\u5ee3\u5cf6\u9583\u96fb
p4197
sg5
V\u9ad8\u677e\u4e94\u7bad
p4198
sg7
V1.75
p4199
sg9
V
sg10
V1.75
p4200
sg12
V74
p4201
sg14
V75
p4202
sg16
V
sg17
V1.75
p4203
sg19
S''
sg20
V1.75
p4204
sg22
V172.5
p4205
sg24
S'95'
p4206
sg26
V-15.5
p4207
sg28
S''
sg29
S'20151017'
p4208
sg31
V118
p4209
sg33
S'79'
p4210
sg35
V38
p4211
sg37
S'326'
p4212
sg39
V+15.5
p4213
sa(dp4214
g3
V\u798f\u5ca1\u65b0\u92b3
p4215
sg5
V\u6ecb\u8cc0\u6e56\u661f
p4216
sg7
V1.75
p4217
sg9
V3.1
p4218
sg10
V1.75
p4219
sg12
V57
p4220
sg14
V81
p4221
sg16
V1.2
p4222
sg17
V1.75
p4223
sg19
V36
p4224
sg20
V1.75
p4225
sg22
V155.5
p4226
sg24
S'67'
p4227
sg26
V-7.5
p4228
sg28
V12
p4229
sg29
g4208
sg31
V106
p4230
sg33
S'66'
p4231
sg35
V28
p4232
sg37
S'327'
p4233
sg39
V+7.5
p4234
sa(dp4235
g3
V\u6ff1B\u6d77\u76dc\u8239
p4236
sg5
V\u6771\u4eac\u4e94\u5922
p4237
sg7
V1.75
p4238
sg9
V
sg10
V1.75
p4239
sg12
V51
p4240
sg14
V98
p4241
sg16
V
sg17
V1.75
p4242
sg19
S''
sg20
V1.75
p4243
sg22
V153.5
p4244
sg24
S'85'
p4245
sg26
V+15.5
p4246
sg28
S''
sg29
g4208
sg31
V79
p4247
sg33
S'65'
p4248
sg35
V43
p4249
sg37
S'328'
p4250
sg39
V-15.5
p4251
sa(dp4252
g3
V\u5927\u962a\u4e03\u798f\u795e
p4253
sg5
V\u5cf6\u6839\u9b54\u8853
p4254
sg7
V1.75
p4255
sg9
V1.35
p4256
sg10
V1.75
p4257
sg12
V34
p4258
sg14
V91
p4259
sg16
V2.45
p4260
sg17
V1.75
p4261
sg19
V17
p4262
sg20
V1.75
p4263
sg22
V152.5
p4264
sg24
S'74'
p4265
sg26
V+4.5
p4266
sg28
V45
p4267
sg29
g4208
sg31
V107
p4268
sg33
S'60'
p4269
sg35
V26
p4270
sg37
S'329'
p4271
sg39
V-4.5
p4272
sa(dp4273
g3
V\u57fc\u7389\u91ce\u99ac
p4274
sg5
V\u52c7\u58eb\u9577\u91ce
p4275
sg7
V1.75
p4276
sg9
V
sg10
V1.75
p4277
sg12
V60
p4278
sg14
V86
p4279
sg16
V
sg17
V1.75
p4280
sg19
S''
sg20
V1.75
p4281
sg22
V166.5
p4282
sg24
S'42'
p4283
sg26
V-11.5
p4284
sg28
S''
sg29
g4208
sg31
V77
p4285
sg33
S'83'
p4286
sg35
V48
p4287
sg37
S'330'
p4288
sg39
V+11.5
p4289
sa(dp4290
g3
V\u5ca9\u624b\u5927\u516c\u725b
p4291
sg5
V\u65b0\u6f5f\u5929\u9d5d
p4292
sg7
V1.75
p4293
sg9
V1.35
p4294
sg10
V1.75
p4295
sg12
V68
p4296
sg14
V152
p4297
sg16
V2.45
p4298
sg17
V1.75
p4299
sg19
V32
p4300
sg20
V1.75
p4301
sg22
V146.5
p4302
sg24
S'59'
p4303
sg26
V+4.5
p4304
sg28
V49
p4305
sg29
g4208
sg31
V101
p4306
sg33
S'70'
p4307
sg35
V42
p4308
sg37
S'331'
p4309
sg39
V-4.5
p4310
sa(dp4311
g3
V\u798f\u5cf6\u706b\u50b5\u5238
p4312
sg5
V\u7fa4\u99ac\u96f7\u9db4
p4313
sg7
V1.75
p4314
sg9
V1.25
p4315
sg10
V1.75
p4316
sg12
V44
p4317
sg14
V78
p4318
sg16
V2.85
p4319
sg17
V1.75
p4320
sg19
V11
p4321
sg20
V1.75
p4322
sg22
V160.5
p4323
sg24
S'95'
p4324
sg26
V+6.5
p4325
sg28
V58
p4326
sg29
g4208
sg31
V103
p4327
sg33
S'87'
p4328
sg35
V33
p4329
sg37
S'332'
p4330
sg39
V-6.5
p4331
sa(dp4332
g3
V\u79cb\u7530\u5317\u90e8\u559c\u6085
p4333
sg5
V\u4ed9\u53f089\u4eba
p4334
sg7
V1.75
p4335
sg9
V1.25
p4336
sg10
V1.75
p4337
sg12
V122
p4338
sg14
V108
p4339
sg16
V2.85
p4340
sg17
V1.75
p4341
sg19
V24
p4342
sg20
V1.75
p4343
sg22
V161.5
p4344
sg24
S'78'
p4345
sg26
V+6.5
p4346
sg28
V39
p4347
sg29
g4208
sg31
V85
p4348
sg33
S'94'
p4349
sg35
V25
p4350
sg37
S'333'
p4351
sg39
V-6.5
p4352
sa(dp4353
g3
V\u9752\u68ee\u71b1\u529b
p4354
sg5
V\u5bcc\u5c71\u677e\u96de
p4355
sg7
V1.75
p4356
sg9
V2.85
p4357
sg10
V1.75
p4358
sg12
V44
p4359
sg14
V113
p4360
sg16
V1.25
p4361
sg17
V1.75
p4362
sg19
V56
p4363
sg20
V1.75
p4364
sg22
V154.5
p4365
sg24
S'94'
p4366
sg26
V-6.5
p4367
sg28
V10
p4368
sg29
g4208
sg31
V53
p4369
sg33
S'76'
p4370
sg35
V36
p4371
sg37
S'335'
p4372
sg39
V+6.5
p4373
sa(dp4374
g3
V\u6ff1\u677e\u6771\u4e09\u6cb3\u9cf3\u51f0
p4375
sg5
V\u77f3\u5ddd\u91d1\u6fa4\u6b66\u58eb\u5718
p4376
sg7
V1.75
p4377
sg9
V
sg10
V1.75
p4378
sg12
V38
p4379
sg14
V93
p4380
sg16
V
sg17
V1.75
p4381
sg19
S''
sg20
V1.75
p4382
sg22
V152.5
p4383
sg24
S'75'
p4384
sg26
V+11.5
p4385
sg28
S''
sg29
g4208
sg31
V99
p4386
sg33
S'52'
p4387
sg35
V43
p4388
sg37
S'336'
p4389
sg39
V-11.5
p4390
sa(dp4391
g3
V\u7409\u7403\u91d1\u5e1d\u7687
p4392
sg5
V\u5948\u826f\u91ce\u5fc3
p4393
sg7
V1.75
p4394
sg9
V
sg10
V1.75
p4395
sg12
V41
p4396
sg14
V56
p4397
sg16
V
sg17
V1.75
p4398
sg19
S''
sg20
V1.75
p4399
sg22
V149.5
p4400
sg24
S'85'
p4401
sg26
V+26.5
p4402
sg28
S''
sg29
g4208
sg31
V103
p4403
sg33
S'70'
p4404
sg35
V28
p4405
sg37
S'334'
p4406
sg39
V-26.5
p4407
sa(dp4408
g3
V\u6ff1B\u6d77\u76dc\u8239
p4409
sg5
V\u6771\u4eac\u4e94\u5922
p4410
sg7
V1.75
p4411
sg9
V
sg10
V1.75
p4412
sg12
V86
p4413
sg14
V95
p4414
sg16
V
sg17
V1.75
p4415
sg19
S''
sg20
V1.75
p4416
sg22
V156.5
p4417
sg24
S'71'
p4418
sg26
V+16.5
p4419
sg28
S''
sg29
S'20151016'
p4420
sg31
V241
p4421
sg33
S'70'
p4422
sg35
V96
p4423
sg37
S'303'
p4424
sg39
V-16.5
p4425
sa(dp4426
g3
V\u798f\u5ca1\u65b0\u92b3
p4427
sg5
V\u6ecb\u8cc0\u6e56\u661f
p4428
sg7
V1.75
p4429
sg9
V1.95
p4430
sg10
V1.75
p4431
sg12
V152
p4432
sg14
V204
p4433
sg16
V1.55
p4434
sg17
V1.75
p4435
sg19
V81
p4436
sg20
V1.75
p4437
sg22
V163.5
p4438
sg24
S'61'
p4439
sg26
V-1.5
p4440
sg28
V41
p4441
sg29
g4420
sg31
V136
p4442
sg33
S'77'
p4443
sg35
V53
p4444
sg37
S'304'
p4445
sg39
V+1.5
p4446
sa(dp4447
g3
V\u5ee3\u5cf6\u9583\u96fb
p4448
sg5
V\u9ad8\u677e\u4e94\u7bad
p4449
sg7
V1.75
p4450
sg9
V
sg10
V1.75
p4451
sg12
V141
p4452
sg14
V149
p4453
sg16
V
sg17
V1.75
p4454
sg19
S''
sg20
V1.75
p4455
sg22
V176.5
p4456
sg24
S'95'
p4457
sg26
V-23.5
p4458
sg28
S''
sg29
g4420
sg31
V167
p4459
sg33
S'103'
p4460
sg35
V67
p4461
sg37
S'306'
p4462
sg39
V+23.5
p4463
sa(dp4464
g3
V\u9ad8\u677e\u4e94\u7bad
p4465
sg5
V\u5927\u5206\u706b\u9b54
p4466
sg7
V1.75
p4467
sg9
V1.35
p4468
sg10
V1.75
p4469
sg12
V59
p4470
sg14
V44
p4471
sg16
V2.45
p4472
sg17
V1.75
p4473
sg19
V8
sg20
V1.75
p4474
sg22
V165.5
p4475
sg24
S'91'
p4476
sg26
V+4.5
p4477
sg28
V54
p4478
sg29
S'20151011'
p4479
sg31
V103
p4480
sg33
S'86'
p4481
sg35
V25
p4482
sg37
S'342'
p4483
sg39
V-4.5
p4484
sa(dp4485
g3
V\u5cf6\u6839\u9b54\u8853
p4486
sg5
V\u77f3\u5ddd\u91d1\u6fa4\u6b66\u58eb\u5718
p4487
sg7
V1.75
p4488
sg9
V2.05
p4489
sg10
V1.75
p4490
sg12
V64
p4491
sg14
V83
p4492
sg16
V1.5
p4493
sg17
V1.75
p4494
sg19
V39
p4495
sg20
V1.75
p4496
sg22
V151.5
p4497
sg24
S'77'
p4498
sg26
V-2.5
p4499
sg28
V15
p4500
sg29
g4479
sg31
V63
p4501
sg33
S'72'
p4502
sg35
V22
p4503
sg37
S'344'
p4504
sg39
V+2.5
p4505
sa(dp4506
g3
V\u798f\u5cf6\u706b\u50b5\u5238
p4507
sg5
V\u5bcc\u5c71\u677e\u96de
p4508
sg7
V1.75
p4509
sg9
V2.15
p4510
sg10
V1.75
p4511
sg12
V48
p4512
sg14
V130
p4513
sg16
V1.45
p4514
sg17
V1.75
p4515
sg19
V53
p4516
sg20
V1.75
p4517
sg22
V154.5
p4518
sg24
S'93'
p4519
sg26
V-3.5
p4520
sg28
V17
p4521
sg29
g4479
sg31
V69
p4522
sg33
S'90'
p4523
sg35
V26
p4524
sg37
S'345'
p4525
sg39
V+3.5
p4526
sa(dp4527
g3
V\u4ed9\u53f089\u4eba
p4528
sg5
V\u6771\u4eac\u4e94\u5922
p4529
sg7
V1.75
p4530
sg9
V
sg10
V1.75
p4531
sg12
V45
p4532
sg14
V64
p4533
sg16
V
sg17
V1.75
p4534
sg19
S''
sg20
V1.75
p4535
sg22
V165.5
p4536
sg24
S'85'
p4537
sg26
V+31.5
p4538
sg28
S''
sg29
g4479
sg31
V149
p4539
sg33
S'66'
p4540
sg35
V44
p4541
sg37
S'346'
p4542
sg39
V-31.5
p4543
sa(dp4544
g3
V\u4eac\u90fd\u5275\u69ae
p4545
sg5
V\u6ff1\u677e\u6771\u4e09\u6cb3\u9cf3\u51f0
p4546
sg7
V1.75
p4547
sg9
V
sg10
V1.75
p4548
sg12
V54
p4549
sg14
V67
p4550
sg16
V
sg17
V1.75
p4551
sg19
S''
sg20
V1.75
p4552
sg22
V143.5
p4553
sg24
S'72'
p4554
sg26
V+10.5
p4555
sg28
S''
sg29
g4479
sg31
V110
p4556
sg33
S'75'
p4557
sg35
V42
p4558
sg37
S'347'
p4559
sg39
V-10.5
p4560
sa(dp4561
g3
V\u7fa4\u99ac\u96f7\u9db4
p4562
sg5
V\u79cb\u7530\u5317\u90e8\u559c\u6085
p4563
sg7
V1.75
p4564
sg9
V2.15
p4565
sg10
V1.75
p4566
sg12
V67
p4567
sg14
V134
p4568
sg16
V1.45
p4569
sg17
V1.75
p4570
sg19
V60
p4571
sg20
V1.75
p4572
sg22
V161.5
p4573
sg24
S'61'
p4574
sg26
V-3.5
p4575
sg28
V22
p4576
sg29
g4479
sg31
V64
p4577
sg33
S'76'
p4578
sg35
V37
p4579
sg37
S'348'
p4580
sg39
V+3.5
p4581
sa(dp4582
g3
V\u6ecb\u8cc0\u6e56\u661f
p4583
sg5
V\u7409\u7403\u91d1\u5e1d\u7687
p4584
sg7
V1.75
p4585
sg9
V
sg10
V1.75
p4586
sg12
V59
p4587
sg14
V137
p4588
sg16
V
sg17
V1.75
p4589
sg19
S''
sg20
V1.75
p4590
sg22
V157.5
p4591
sg24
S'73'
p4592
sg26
V-10.5
p4593
sg28
S''
sg29
g4479
sg31
V57
p4594
sg33
S'70'
p4595
sg35
V29
p4596
sg37
S'349'
p4597
sg39
V+10.5
p4598
sa(dp4599
g3
V\u5ca9\u624b\u5927\u516c\u725b
p4600
sg5
V\u57fc\u7389\u91ce\u99ac
p4601
sg7
V1.75
p4602
sg9
V
sg10
V1.75
p4603
sg12
V57
p4604
sg14
V67
p4605
sg16
V
sg17
V1.75
p4606
sg19
S''
sg20
V1.75
p4607
sg22
V150.5
p4608
sg24
S'78'
p4609
sg26
V+25.5
p4610
sg28
S''
sg29
g4479
sg31
V69
p4611
sg33
S'55'
p4612
sg35
V32
p4613
sg37
S'350'
p4614
sg39
V-25.5
p4615
sa(dp4616
g3
V\u5948\u826f\u91ce\u5fc3
p4617
sg5
V\u5927\u962a\u4e03\u798f\u795e
p4618
sg7
V1.75
p4619
sg9
V
sg10
V1.75
p4620
sg12
V30
p4621
sg14
V107
p4622
sg16
V
sg17
V1.75
p4623
sg19
S''
sg20
V1.75
p4624
sg22
V151.5
p4625
sg24
S'67'
p4626
sg26
V-13.5
p4627
sg28
S''
sg29
g4479
sg31
V55
p4628
sg33
S'83'
p4629
sg35
V43
p4630
sg37
S'351'
p4631
sg39
V+13.5
p4632
sa(dp4633
g3
V\u798f\u5ca1\u65b0\u92b3
p4634
sg5
V\u5ee3\u5cf6\u9583\u96fb
p4635
sg7
V1.75
p4636
sg9
V1.12
p4637
sg10
V1.75
p4638
sg12
V68
p4639
sg14
V35
p4640
sg16
V3.75
p4641
sg17
V1.75
p4642
sg19
V3
sg20
V1.75
p4643
sg22
V166.5
p4644
sg24
S'105'
p4645
sg26
V+9.5
p4646
sg28
V77
p4647
sg29
g4479
sg31
V163
p4648
sg33
S'75'
p4649
sg35
V27
p4650
sg37
S'352'
p4651
sg39
V-9.5
p4652
sa(dp4653
g3
V\u65b0\u6f5f\u5929\u9d5d
p4654
sg5
V\u6ff1B\u6d77\u76dc\u8239
p4655
sg7
V1.75
p4656
sg9
V
sg10
V1.75
p4657
sg12
V70
p4658
sg14
V73
p4659
sg16
V
sg17
V1.75
p4660
sg19
S''
sg20
V1.75
p4661
sg22
V154.5
p4662
sg24
S'89'
p4663
sg26
V+18.5
p4664
sg28
S''
sg29
g4479
sg31
V120
p4665
sg33
S'74'
p4666
sg35
V25
p4667
sg37
S'353'
p4668
sg39
V-18.5
p4669
sa(dp4670
g3
V\u65b0\u6f5f\u5929\u9d5d
p4671
sg5
V\u6ff1B\u6d77\u76dc\u8239
p4672
sg7
V1.75
p4673
sg9
V
sg10
V1.75
p4674
sg12
V66
p4675
sg14
V59
p4676
sg16
V
sg17
V1.75
p4677
sg19
S''
sg20
V1.75
p4678
sg22
V156.5
p4679
sg24
S'88'
p4680
sg26
V+14.5
p4681
sg28
S''
sg29
S'20151010'
p4682
sg31
V150
p4683
sg33
S'62'
p4684
sg35
V38
p4685
sg37
S'332'
p4686
sg39
V-14.5
p4687
sa(dp4688
g3
V\u798f\u5cf6\u706b\u50b5\u5238
p4689
sg5
V\u5bcc\u5c71\u677e\u96de
p4690
sg7
V1.75
p4691
sg9
V2.6
p4692
sg10
V1.75
p4693
sg12
V55
p4694
sg14
V129
p4695
sg16
V1.3
p4696
sg17
V1.75
p4697
sg19
V68
p4698
sg20
V1.75
p4699
sg22
V160.5
p4700
sg24
S'76'
p4701
sg26
V-5.5
p4702
sg28
V18
p4703
sg29
g4682
sg31
V63
p4704
sg33
S'73'
p4705
sg35
V39
p4706
sg37
S'333'
p4707
sg39
V+5.5
p4708
sa(dp4709
g3
V\u4ed9\u53f089\u4eba
p4710
sg5
V\u6771\u4eac\u4e94\u5922
p4711
sg7
V1.75
p4712
sg9
V
sg10
V1.75
p4713
sg12
V56
p4714
sg14
V70
p4715
sg16
V
sg17
V1.75
p4716
sg19
S''
sg20
V1.75
p4717
sg22
V166.5
p4718
sg24
S'108'
p4719
sg26
V+22.5
p4720
sg28
S''
sg29
g4682
sg31
V176
p4721
sg33
S'52'
p4722
sg35
V41
p4723
sg37
S'334'
p4724
sg39
V-22.5
p4725
sa(dp4726
g3
V\u5ca9\u624b\u5927\u516c\u725b
p4727
sg5
V\u57fc\u7389\u91ce\u99ac
p4728
sg7
V1.75
p4729
sg9
V
sg10
V1.75
p4730
sg12
V64
p4731
sg14
V79
p4732
sg16
V
sg17
V1.75
p4733
sg19
S''
sg20
V1.75
p4734
sg22
V154.5
p4735
sg24
S'87'
p4736
sg26
V+23.5
p4737
sg28
S''
sg29
g4682
sg31
V100
p4738
sg33
S'55'
p4739
sg35
V32
p4740
sg37
S'335'
p4741
sg39
V-23.5
p4742
sa(dp4743
g3
V\u6ecb\u8cc0\u6e56\u661f
p4744
sg5
V\u7409\u7403\u91d1\u5e1d\u7687
p4745
sg7
V1.75
p4746
sg9
V3.1
p4747
sg10
V1.75
p4748
sg12
V100
p4749
sg14
V150
p4750
sg16
V1.2
p4751
sg17
V1.75
p4752
sg19
V82
p4753
sg20
V1.75
p4754
sg22
V150.5
p4755
sg24
S'71'
p4756
sg26
V-7.5
p4757
sg28
V11
p4758
sg29
g4682
sg31
V59
p4759
sg33
S'95'
p4760
sg35
V26
p4761
sg37
S'336'
p4762
sg39
V+7.5
p4763
sa(dp4764
g3
V\u7fa4\u99ac\u96f7\u9db4
p4765
sg5
V\u79cb\u7530\u5317\u90e8\u559c\u6085
p4766
sg7
V1.75
p4767
sg9
V2.85
p4768
sg10
V1.75
p4769
sg12
V88
p4770
sg14
V135
p4771
sg16
V1.25
p4772
sg17
V1.75
p4773
sg19
V58
p4774
sg20
V1.75
p4775
sg22
V160.5
p4776
sg24
S'86'
p4777
sg26
V-6.5
p4778
sg28
V18
p4779
sg29
g4682
sg31
V63
p4780
sg33
S'77'
p4781
sg35
V31
p4782
sg37
S'337'
p4783
sg39
V+6.5
p4784
sa(dp4785
g3
V\u5948\u826f\u91ce\u5fc3
p4786
sg5
V\u5927\u962a\u4e03\u798f\u795e
p4787
sg7
V1.75
p4788
sg9
V1.9
p4789
sg10
V1.75
p4790
sg12
V33
p4791
sg14
V132
p4792
sg16
V1.6
p4793
sg17
V1.75
p4794
sg19
V60
p4795
sg20
V1.75
p4796
sg22
V155.5
p4797
sg24
S'48'
p4798
sg26
V-1.5
p4799
sg28
V25
p4800
sg29
g4682
sg31
V66
p4801
sg33
S'85'
p4802
sg35
V51
p4803
sg37
S'345'
p4804
sg39
V+1.5
p4805
sa(dp4806
g3
V\u5cf6\u6839\u9b54\u8853
p4807
sg5
V\u77f3\u5ddd\u91d1\u6fa4\u6b66\u58eb\u5718
p4808
sg7
V1.75
p4809
sg9
V2.6
p4810
sg10
V1.75
p4811
sg12
V38
p4812
sg14
V75
p4813
sg16
V1.3
p4814
sg17
V1.75
p4815
sg19
V47
p4816
sg20
V1.75
p4817
sg22
V145.5
p4818
sg24
S'124'
p4819
sg26
V-5.5
p4820
sg28
V28
p4821
sg29
g4682
sg31
V115
p4822
sg33
S'119'
p4823
sg35
V50
p4824
sg37
S'346'
p4825
sg39
V+5.5
p4826
sa(dp4827
g3
V\u798f\u5ca1\u65b0\u92b3
p4828
sg5
V\u5ee3\u5cf6\u9583\u96fb
p4829
sg7
V1.75
p4830
sg9
V1.25
p4831
sg10
V1.75
p4832
sg12
V64
p4833
sg14
V50
p4834
sg16
V2.85
p4835
sg17
V1.75
p4836
sg19
V9
sg20
V1.75
p4837
sg22
V163.5
p4838
sg24
S'101'
p4839
sg26
V+6.5
p4840
sg28
V95
p4841
sg29
g4682
sg31
V167
p4842
sg33
S'74'
p4843
sg35
V37
p4844
sg37
S'347'
p4845
sg39
V-6.5
p4846
sa(dp4847
g3
V\u4eac\u90fd\u5275\u69ae
p4848
sg5
V\u6ff1\u677e\u6771\u4e09\u6cb3\u9cf3\u51f0
p4849
sg7
V1.75
p4850
sg9
V1.25
p4851
sg10
V1.75
p4852
sg12
V45
p4853
sg14
V93
p4854
sg16
V2.85
p4855
sg17
V1.75
p4856
sg19
V20
p4857
sg20
V1.75
p4858
sg22
V140.5
p4859
sg24
S'86'
p4860
sg26
V+6.5
p4861
sg28
V62
p4862
sg29
g4682
sg31
V103
p4863
sg33
S'64'
p4864
sg35
V61
p4865
sg37
S'348'
p4866
sg39
V-6.5
p4867
sa(dp4868
g3
V\u9ad8\u677e\u4e94\u7bad
p4869
sg5
V\u5927\u5206\u706b\u9b54
p4870
sg7
V1.75
p4871
sg9
V1.35
p4872
sg10
V1.75
p4873
sg12
V50
p4874
sg14
V63
p4875
sg16
V2.45
p4876
sg17
V1.75
p4877
sg19
V18
p4878
sg20
V1.75
p4879
sg22
V161.5
p4880
sg24
S'95'
p4881
sg26
V+4.5
p4882
sg28
V63
p4883
sg29
g4682
sg31
V119
p4884
sg33
S'89'
p4885
sg35
V34
p4886
sg37
S'349'
p4887
sg39
V-4.5
p4888
sa(dp4889
g3
V\u5cf6\u6839\u9b54\u8853
p4890
sg5
V\u5948\u826f\u91ce\u5fc3
p4891
sg7
V1.75
p4892
sg9
V1.2
p4893
sg10
V1.75
p4894
sg12
V34
p4895
sg14
V67
p4896
sg16
V3.1
p4897
sg17
V1.75
p4898
sg19
V8
sg20
V1.75
p4899
sg22
V146.5
p4900
sg24
S'94'
p4901
sg26
V+7.5
p4902
sg28
V57
p4903
sg29
S'20151004'
p4904
sg31
V94
p4905
sg33
S'52'
p4906
sg35
V57
p4907
sg37
S'350'
p4908
sg39
V-7.5
p4909
sa(dp4910
g3
V\u5bcc\u5c71\u677e\u96de
p4911
sg5
V\u5ca9\u624b\u5927\u516c\u725b
p4912
sg7
V1.75
p4913
sg9
V1.45
p4914
sg10
V1.75
p4915
sg12
V45
p4916
sg14
V69
p4917
sg16
V2.15
p4918
sg17
V1.75
p4919
sg19
V22
p4920
sg20
V1.75
p4921
sg22
V145.5
p4922
sg24
S'75'
p4923
sg26
V+3.5
p4924
sg28
V41
p4925
sg29
g4904
sg31
V80
p4926
sg33
S'66'
p4927
sg35
V30
p4928
sg37
S'352'
p4929
sg39
V-3.5
p4930
sa(dp4931
g3
V\u77f3\u5ddd\u91d1\u6fa4\u6b66\u58eb\u5718
p4932
sg5
V\u4eac\u90fd\u5275\u69ae
p4933
sg7
V1.75
p4934
sg9
V2.6
p4935
sg10
V1.75
p4936
sg12
V55
p4937
sg14
V134
p4938
sg16
V1.3
p4939
sg17
V1.75
p4940
sg19
V68
p4941
sg20
V1.75
p4942
sg22
V148.5
p4943
sg24
S'73'
p4944
sg26
V-5.5
p4945
sg28
V8
sg29
g4904
sg31
V45
p4946
sg33
S'68'
p4947
sg35
V38
p4948
sg37
S'353'
p4949
sg39
V+5.5
p4950
sa(dp4951
g3
V\u6ff1\u677e\u6771\u4e09\u6cb3\u9cf3\u51f0
p4952
sg5
V\u9ad8\u677e\u4e94\u7bad
p4953
sg7
V1.75
p4954
sg9
V1.25
p4955
sg10
V1.75
p4956
sg12
V39
p4957
sg14
V47
p4958
sg16
V2.85
p4959
sg17
V1.75
p4960
sg19
V11
p4961
sg20
V1.75
p4962
sg22
V148.5
p4963
sg24
S'72'
p4964
sg26
V+6.5
p4965
sg28
V69
p4966
sg29
g4904
sg31
V126
p4967
sg33
S'61'
p4968
sg35
V21
p4969
sg37
S'354'
p4970
sg39
V-6.5
p4971
sa(dp4972
g3
V\u6ff1B\u6d77\u76dc\u8239
p4973
sg5
V\u798f\u5cf6\u706b\u50b5\u5238
p4974
sg7
V1.75
p4975
sg9
V1.6
p4976
sg10
V1.75
p4977
sg12
V65
p4978
sg14
V33
p4979
sg16
V1.9
p4980
sg17
V1.75
p4981
sg19
V13
p4982
sg20
V1.75
p4983
sg22
V154.5
p4984
sg24
S'54'
p4985
sg26
V+1.5
p4986
sg28
V53
p4987
sg29
g4904
sg31
V94
p4988
sg33
S'85'
p4989
sg35
V14
p4990
sg37
S'355'
p4991
sg39
V-1.5
p4992
sa(dp4993
g3
V\u5927\u5206\u706b\u9b54
p4994
sg5
V\u798f\u5ca1\u65b0\u92b3
p4995
sg7
V1.75
p4996
sg9
V2.6
p4997
sg10
V1.75
p4998
sg12
V59
p4999
sg14
V89
p5000
sg16
V1.3
p5001
sg17
V1.75
p5002
sg19
V46
p5003
sg20
V1.75
p5004
sg22
V165.5
p5005
sg24
S'87'
p5006
sg26
V-5.5
p5007
sg28
V15
p5008
sg29
g4904
sg31
V45
p5009
sg33
S'83'
p5010
sg35
V24
p5011
sg37
S'356'
p5012
sg39
V+5.5
p5013
sa(dp5014
g3
V\u79cb\u7530\u5317\u90e8\u559c\u6085
p5015
sg5
V\u57fc\u7389\u91ce\u99ac
p5016
sg7
V1.75
p5017
sg9
V
sg10
V1.75
p5018
sg12
V55
p5019
sg14
V66
p5020
sg16
V
sg17
V1.75
p5021
sg19
S''
sg20
V1.75
p5022
sg22
V160.5
p5023
sg24
S'91'
p5024
sg26
V+25.5
p5025
sg28
S''
sg29
g4904
sg31
V85
p5026
sg33
S'70'
p5027
sg35
V39
p5028
sg37
S'357'
p5029
sg39
V-25.5
p5030
sa(dp5031
g3
V\u5927\u962a\u4e03\u798f\u795e
p5032
sg5
V\u6ecb\u8cc0\u6e56\u661f
p5033
sg7
V1.75
p5034
sg9
V1.9
p5035
sg10
V1.75
p5036
sg12
V35
p5037
sg14
V83
p5038
sg16
V1.6
p5039
sg17
V1.75
p5040
sg19
V40
p5041
sg20
V1.75
p5042
sg22
V153.5
p5043
sg24
S'78'
p5044
sg26
V-1.5
p5045
sg28
V27
p5046
sg29
g4904
sg31
V60
p5047
sg33
S'79'
p5048
sg35
V22
p5049
sg37
S'358'
p5050
sg39
V+1.5
p5051
sa(dp5052
g3
V\u9752\u68ee\u71b1\u529b
p5053
sg5
V\u4ed9\u53f089\u4eba
p5054
sg7
V1.75
p5055
sg9
V2.05
p5056
sg10
V1.75
p5057
sg12
V58
p5058
sg14
V114
p5059
sg16
V1.5
p5060
sg17
V1.75
p5061
sg19
V59
p5062
sg20
V1.75
p5063
sg22
V164.5
p5064
sg24
S'75'
p5065
sg26
V-2.5
p5066
sg28
V20
p5067
sg29
g4904
sg31
V49
p5068
sg33
S'80'
p5069
sg35
V28
p5070
sg37
S'359'
p5071
sg39
V+2.5
p5072
sa(dp5073
g3
V\u7fa4\u99ac\u96f7\u9db4
p5074
sg5
V\u52c7\u58eb\u9577\u91ce
p5075
sg7
V1.75
p5076
sg9
V1.12
p5077
sg10
V1.75
p5078
sg12
V109
p5079
sg14
V114
p5080
sg16
V3.75
p5081
sg17
V1.75
p5082
sg19
V10
p5083
sg20
V1.75
p5084
sg22
V158.5
p5085
sg24
S'85'
p5086
sg26
V+9.5
p5087
sg28
V80
p5088
sg29
g4904
sg31
V123
p5089
sg33
S'75'
p5090
sg35
V49
p5091
sg37
S'360'
p5092
sg39
V-9.5
p5093
sa(dp5094
g3
V\u79cb\u7530\u5317\u90e8\u559c\u6085
p5095
sg5
V\u57fc\u7389\u91ce\u99ac
p5096
sg7
V1.75
p5097
sg9
V
sg10
V1.75
p5098
sg12
V79
p5099
sg14
V66
p5100
sg16
V
sg17
V1.75
p5101
sg19
S''
sg20
V1.75
p5102
sg22
V169.5
p5103
sg24
S'77'
p5104
sg26
V+25.5
p5105
sg28
S''
sg29
S'20151003'
p5106
sg31
V109
p5107
sg33
S'56'
p5108
sg35
V35
p5109
sg37
S'328'
p5110
sg39
V-25.5
p5111
sa(dp5112
g3
V\u5ee3\u5cf6\u9583\u96fb
p5113
sg5
V\u7409\u7403\u91d1\u5e1d\u7687
p5114
sg7
V1.75
p5115
sg9
V
sg10
V1.75
p5116
sg12
V97
p5117
sg14
V160
p5118
sg16
V
sg17
V1.75
p5119
sg19
S''
sg20
V1.75
p5120
sg22
V158.5
p5121
sg24
S'74'
p5122
sg26
V-16.5
p5123
sg28
S''
sg29
g5106
sg31
V43
p5124
sg33
S'104'
p5125
sg35
V22
p5126
sg37
S'329'
p5127
sg39
V+16.5
p5128
sa(dp5129
g3
V\u6771\u4eac\u4e94\u5922
p5130
sg5
V\u65b0\u6f5f\u5929\u9d5d
p5131
sg7
V1.75
p5132
sg9
V
sg10
V1.75
p5133
sg12
V68
p5134
sg14
V129
p5135
sg16
V
sg17
V1.75
p5136
sg19
S''
sg20
V1.75
p5137
sg22
V156.5
p5138
sg24
S'62'
p5139
sg26
V-23.5
p5140
sg28
S''
sg29
g5106
sg31
V55
p5141
sg33
S'95'
p5142
sg35
V40
p5143
sg37
S'330'
p5144
sg39
V+23.5
p5145
sa(dp5146
g3
V\u5927\u962a\u4e03\u798f\u795e
p5147
sg5
V\u6ecb\u8cc0\u6e56\u661f
p5148
sg7
V1.75
p5149
sg9
V1.5
p5150
sg10
V1.75
p5151
sg12
V56
p5152
sg14
V90
p5153
sg16
V2.05
p5154
sg17
V1.75
p5155
sg19
V31
p5156
sg20
V1.75
p5157
sg22
V150.5
p5158
sg24
S'71'
p5159
sg26
V+2.5
p5160
sg28
V43
p5161
sg29
g5106
sg31
V93
p5162
sg33
S'84'
p5163
sg35
V26
p5164
sg37
S'331'
p5165
sg39
V-2.5
p5166
sa(dp5167
g3
V\u5bcc\u5c71\u677e\u96de
p5168
sg5
V\u5ca9\u624b\u5927\u516c\u725b
p5169
sg7
V1.75
p5170
sg9
V1.3
p5171
sg10
V1.75
p5172
sg12
V49
p5173
sg14
V100
p5174
sg16
V2.6
p5175
sg17
V1.75
p5176
sg19
V16
p5177
sg20
V1.75
p5178
sg22
V149.5
p5179
sg24
S'66'
p5180
sg26
V+5.5
p5181
sg28
V52
p5182
sg29
g5106
sg31
V87
p5183
sg33
S'63'
p5184
sg35
V28
p5185
sg37
S'332'
p5186
sg39
V-5.5
p5187
sa(dp5188
g3
V\u77f3\u5ddd\u91d1\u6fa4\u6b66\u58eb\u5718
p5189
sg5
V\u4eac\u90fd\u5275\u69ae
p5190
sg7
V1.75
p5191
sg9
V2.45
p5192
sg10
V1.75
p5193
sg12
V27
p5194
sg14
V133
p5195
sg16
V1.35
p5196
sg17
V1.75
p5197
sg19
V73
p5198
sg20
V1.75
p5199
sg22
V154.5
p5200
sg24
S'64'
p5201
sg26
V-4.5
p5202
sg28
V11
p5203
sg29
g5106
sg31
V20
p5204
sg33
S'68'
p5205
sg35
V25
p5206
sg37
S'333'
p5207
sg39
V+4.5
p5208
sa(dp5209
g3
V\u6ff1\u677e\u6771\u4e09\u6cb3\u9cf3\u51f0
p5210
sg5
V\u9ad8\u677e\u4e94\u7bad
p5211
sg7
V1.75
p5212
sg9
V1.25
p5213
sg10
V1.75
p5214
sg12
V47
p5215
sg14
V39
p5216
sg16
V2.85
p5217
sg17
V1.75
p5218
sg19
V7
sg20
V1.75
p5219
sg22
V150.5
p5220
sg24
S'67'
p5221
sg26
V+6.5
p5222
sg28
V104
p5223
sg29
g5106
sg31
V192
p5224
sg33
S'74'
p5225
sg35
V23
p5226
sg37
S'334'
p5227
sg39
V-6.5
p5228
sa(dp5229
g3
V\u7fa4\u99ac\u96f7\u9db4
p5230
sg5
V\u52c7\u58eb\u9577\u91ce
p5231
sg7
V1.75
p5232
sg9
V1.6
p5233
sg10
V1.75
p5234
sg12
V81
p5235
sg14
V73
p5236
sg16
V1.9
p5237
sg17
V1.75
p5238
sg19
V30
p5239
sg20
V1.75
p5240
sg22
V163.5
p5241
sg24
S'88'
p5242
sg26
V+1.5
p5243
sg28
V35
p5244
sg29
g5106
sg31
V63
p5245
sg33
S'61'
p5246
sg35
V22
p5247
sg37
S'335'
p5248
sg39
V-1.5
p5249
sa(dp5250
g3
V\u5927\u5206\u706b\u9b54
p5251
sg5
V\u798f\u5ca1\u65b0\u92b3
p5252
sg7
V1.75
p5253
sg9
V1.35
p5254
sg10
V1.75
p5255
sg12
V55
p5256
sg14
V67
p5257
sg16
V2.45
p5258
sg17
V1.75
p5259
sg19
V16
p5260
sg20
V1.75
p5261
sg22
V152.5
p5262
sg24
S'84'
p5263
sg26
V+4.5
p5264
sg28
V46
p5265
sg29
g5106
sg31
V73
p5266
sg33
S'106'
p5267
sg35
V15
p5268
sg37
S'336'
p5269
sg39
V-4.5
p5270
sa(dp5271
g3
V\u9752\u68ee\u71b1\u529b
p5272
sg5
V\u4ed9\u53f089\u4eba
p5273
sg7
V1.75
p5274
sg9
V1.5
p5275
sg10
V1.75
p5276
sg12
V61
p5277
sg14
V95
p5278
sg16
V2.05
p5279
sg17
V1.75
p5280
sg19
V37
p5281
sg20
V1.75
p5282
sg22
V151.5
p5283
sg24
S'85'
p5284
sg26
V+2.5
p5285
sg28
V31
p5286
sg29
g5106
sg31
V61
p5287
sg33
S'103'
p5288
sg35
V22
p5289
sg37
S'337'
p5290
sg39
V-2.5
p5291
sa(dp5292
g3
V\u6ff1B\u6d77\u76dc\u8239
p5293
sg5
V\u798f\u5cf6\u706b\u50b5\u5238
p5294
sg7
V1.75
p5295
sg9
V1.5
p5296
sg10
V1.75
p5297
sg12
V59
p5298
sg14
V60
p5299
sg16
V2.05
p5300
sg17
V1.75
p5301
sg19
V28
p5302
sg20
V1.75
p5303
sg22
V161.5
p5304
sg24
S'96'
p5305
sg26
V+2.5
p5306
sg28
V48
p5307
sg29
g5106
sg31
V97
p5308
sg33
S'88'
p5309
sg35
V23
p5310
sg37
S'338'
p5311
sg39
V-2.5
p5312
sa(dp5313
g3
V\u5cf6\u6839\u9b54\u8853
p5314
sg5
V\u5948\u826f\u91ce\u5fc3
p5315
sg7
V1.75
p5316
sg9
V1.25
p5317
sg10
V1.75
p5318
sg12
V31
p5319
sg14
V44
p5320
sg16
V2.85
p5321
sg17
V1.75
p5322
sg19
V6
sg20
V1.75
p5323
sg22
V146.5
p5324
sg24
S'70'
p5325
sg26
V+6.5
p5326
sg28
V64
p5327
sg29
g5106
sg31
V86
p5328
sg33
S'64'
p5329
sg35
V32
p5330
sg37
S'339'
p5331
sg39
V-6.5
p5332
sa(dp5333
g3
V\u6771\u4eac\u4e94\u5922
p5334
sg5
V\u65b0\u6f5f\u5929\u9d5d
p5335
sg7
V1.75
p5336
sg9
V
sg10
V1.75
p5337
sg12
V73
p5338
sg14
V116
p5339
sg16
V
sg17
V1.75
p5340
sg19
S''
sg20
V1.75
p5341
sg22
V157.5
p5342
sg24
S'64'
p5343
sg26
V-21.5
p5344
sg28
S''
sg29
S'20151002'
p5345
sg31
V146
p5346
sg33
S'107'
p5347
sg35
V135
p5348
sg37
S'318'
p5349
sg39
V+21.5
p5350
sa(dp5351
g3
V\u5ee3\u5cf6\u9583\u96fb
p5352
sg5
V\u7409\u7403\u91d1\u5e1d\u7687
p5353
sg7
V1.75
p5354
sg9
V2.45
p5355
sg10
V1.75
p5356
sg12
V92
p5357
sg14
V230
p5358
sg16
V1.35
p5359
sg17
V1.75
p5360
sg19
V99
p5361
sg20
V1.75
p5362
sg22
V148.5
p5363
sg24
S'75'
p5364
sg26
V-4.5
p5365
sg28
V13
p5366
sg29
g5345
sg31
V60
p5367
sg33
S'127'
p5368
sg35
V67
p5369
sg37
S'319'
p5370
sg39
V+4.5
p5371
sa.